(lp1
(Vhttps://www.amazon.co.jp/primeday
p2
(i__main__
ScrapingData
(dp3
S'html_raw'
p4
S''
sS'description'
p5
S''
sS'title'
p6
S''
sS'url'
p7
Vhttps://www.amazon.co.jp/primeday/ref=PD16_GW_PRE_UPNAV_DAY3_Landing
p8
sS'amazon_rating'
p9
I0
sS'reviews'
p10
(lp11
sS'date'
p12
I0
sS'html_context'
p13
S''
sS'uniq_url'
p14
g2
sbtp15
a(Vhttps://www.amazon.co.jp/gp/prime
p16
(i__main__
ScrapingData
(dp17
g4
S''
sg5
S''
sg6
S''
sg7
g16
sg9
I0
sg10
(lp18
sg12
I0
sg13
S''
sg14
g16
sbtp19
a(Vhttps://www.amazon.co.jp/gp/site-directory
p20
(i__main__
ScrapingData
(dp21
g4
S''
sg5
S''
sg6
S''
sg7
g20
sg9
I0
sg10
(lp22
sg12
I0
sg13
S''
sg14
g20
sbtp23
a(Vhttps://www.amazon.co.jp/gp/navigation
p24
(i__main__
ScrapingData
(dp25
g4
S''
sg5
S''
sg6
S''
sg7
Vhttps://www.amazon.co.jp/gp/navigation/redirector.html?ie=UTF8&associationHandle=jpflex&currentPageURL=https%3A%2F%2Fwww.amazon.co.jp%2Fmn%2Flanding%2F2250738051%3F_encoding%3DUTF8%26ref_%3Dnav_ya_signin&pageType=Landing&yshURL=https%3A%2F%2Fwww.amazon.co.jp%2Fgp%2Fyourstore%2Fhome%3Fie%3DUTF8%26ref_%3Dnav_ya_signin
p26
sg9
I0
sg10
(lp27
sg12
I0
sg13
S''
sg14
g24
sbtp28
a(Vhttps://www.amazon.co.jp/gp/registry/wishlist
p29
(i__main__
ScrapingData
(dp30
g4
S''
sg5
S''
sg6
S''
sg7
g29
sg9
I0
sg10
(lp31
sg12
I0
sg13
S''
sg14
g29
sbtp32
a(Vhttps://www.amazon.co.jp/gp/cart/view.html
p33
(i__main__
ScrapingData
(dp34
g4
S''
sg5
S''
sg6
S''
sg7
g33
sg9
I0
sg10
(lp35
sg12
I0
sg13
S''
sg14
g33
sbtp36
a(Vhttps://www.amazon.co.jp/gp/yourstore/home
p37
(i__main__
ScrapingData
(dp38
g4
S''
sg5
S''
sg6
S''
sg7
g37
sg9
I0
sg10
(lp39
sg12
I0
sg13
S''
sg14
g37
sbtp40
a(Vhttps://www.amazon.co.jp/gp/gc
p41
(i__main__
ScrapingData
(dp42
g4
S''
sg5
S''
sg6
S''
sg7
g41
sg9
I0
sg10
(lp43
sg12
I0
sg13
S''
sg14
g41
sbtp44
a(Vhttps://www.amazon.co.jp/gp/goldbox
p45
(i__main__
ScrapingData
(dp46
g4
S''
sg5
S''
sg6
S''
sg7
g45
sg9
I0
sg10
(lp47
sg12
I0
sg13
S''
sg14
g45
sbtp48
a(Vhttps://www.amazon.co.jp/b
p49
(i__main__
ScrapingData
(dp50
g4
S''
sg5
S''
sg6
S''
sg7
Vhttps://www.amazon.co.jp/b/?_encoding=UTF8&ld=AZJPSOASL1&node=2490612051
p51
sg9
I0
sg10
(lp52
sg12
I0
sg13
S''
sg14
g49
sbtp53
a(Vhttps://www.amazon.co.jp/%E3%83%98%E3%83%AB%E3%83%97
p54
(i__main__
ScrapingData
(dp55
g4
S''
sg5
S''
sg6
S''
sg7
Vhttps://www.amazon.co.jp/%E3%83%98%E3%83%AB%E3%83%97/b?ie=UTF8&node=642938
p56
sg9
I0
sg10
(lp57
sg12
I0
sg13
S''
sg14
g54
sbtp58
a(Vhttps://www.amazon.co.jp/l
p59
(i__main__
ScrapingData
(dp60
g4
S''
sg5
S''
sg6
S''
sg7
Vhttps://www.amazon.co.jp/l/2250738051?_encoding=UTF8&language=en_US
p61
sg9
I0
sg10
(lp62
sg12
I0
sg13
S''
sg14
g59
sbtp63
a(Vhttps://www.amazon.co.jp/Kindle-%E3%82%AD%E3%83%B3%E3%83%89%E3%83%AB-%E9%9B%BB%E5%AD%90%E6%9B%B8%E7%B1%8D
p64
(i__main__
ScrapingData
(dp65
g4
S''
sg5
S''
sg6
S''
sg7
Vhttps://www.amazon.co.jp/Kindle-%E3%82%AD%E3%83%B3%E3%83%89%E3%83%AB-%E9%9B%BB%E5%AD%90%E6%9B%B8%E7%B1%8D/b?ie=UTF8&node=2250738051
p66
sg9
I0
sg10
(lp67
sg12
I0
sg13
S''
sg14
g64
sbtp68
a(Vhttps://www.amazon.co.jp/gp/product/B00KDROTZM
p69
(i__main__
ScrapingData
(dp70
g4
S''
sg5
S''
sg6
S''
sg7
g69
sg9
I0
sg10
(lp71
sg12
I0
sg13
S''
sg14
g69
sbtp72
a(Vhttps://www.amazon.co.jp/%E3%82%A2%E3%82%AF%E3%82%BB%E3%82%B5%E3%83%AA-Kindle-%E3%82%AD%E3%83%B3%E3%83%89%E3%83%AB
p73
(i__main__
ScrapingData
(dp74
g4
S''
sg5
S''
sg6
S''
sg7
Vhttps://www.amazon.co.jp/%E3%82%A2%E3%82%AF%E3%82%BB%E3%82%B5%E3%83%AA-Kindle-%E3%82%AD%E3%83%B3%E3%83%89%E3%83%AB/b?ie=UTF8&node=2408696051
p75
sg9
I0
sg10
(lp76
sg12
I0
sg13
S''
sg14
g73
sbtp77
a(Vhttps://www.amazon.co.jp/%E3%82%B3%E3%83%9F%E3%83%83%E3%82%AF-%E6%BC%AB%E7%94%BB-Kindle-%E3%82%AD%E3%83%B3%E3%83%89%E3%83%AB-%E9%9B%BB%E5%AD%90%E6%9B%B8%E7%B1%8D
p78
(i__main__
ScrapingData
(dp79
g4
S''
sg5
S''
sg6
S''
sg7
Vhttps://www.amazon.co.jp/%E3%82%B3%E3%83%9F%E3%83%83%E3%82%AF-%E6%BC%AB%E7%94%BB-Kindle-%E3%82%AD%E3%83%B3%E3%83%89%E3%83%AB-%E9%9B%BB%E5%AD%90%E6%9B%B8%E7%B1%8D/b?ie=UTF8&node=2293143051
p80
sg9
I0
sg10
(lp81
sg12
I0
sg13
S''
sg14
g78
sbtp82
a(Vhttps://www.amazon.co.jp/gp/bestsellers/digital-text/2275256051
p83
(i__main__
ScrapingData
(dp84
g4
S''
sg5
S''
sg6
S''
sg7
g83
sg9
I0
sg10
(lp85
sg12
I0
sg13
S''
sg14
g83
sbtp86
a(Vhttps://www.amazon.co.jp/gp/help/customer
p87
(i__main__
ScrapingData
(dp88
g4
S''
sg5
S''
sg6
S''
sg7
Vhttps://www.amazon.co.jp/gp/help/customer/display.html?ie=UTF8&nodeId=200127470
p89
sg9
I0
sg10
(lp90
sg12
I0
sg13
S''
sg14
g87
sbtp91
a(Vhttps://www.amazon.co.jp/Amazon-SY69JL-Kindle-New%E3%83%A2%E3%83%87%E3%83%AB-Wi-Fi%E3%80%81%E3%83%96%E3%83%A9%E3%83%83%E3%82%AF%E3%80%81%E3%82%AD%E3%83%A3%E3%83%B3%E3%83%9A%E3%83%BC%E3%83%B3%E6%83%85%E5%A0%B1%E3%81%A4%E3%81%8D%E3%83%A2%E3%83%87%E3%83%AB%E3%80%81%E9%9B%BB%E5%AD%90%E6%9B%B8%E7%B1%8D%E3%83%AA%E3%83%BC%E3%83%80%E3%83%BC/dp/B0186FESEE
p92
(i__main__
ScrapingData
(dp93
g4
S''
sg5
S''
sg6
S''
sg7
g92
sg9
I0
sg10
(lp94
sg12
I0
sg13
S''
sg14
g92
sbtp95
a(Vhttps://www.amazon.co.jp/Amazon-DP75SDI-Kindle-Paperwhite-%E3%80%81%E3%83%96%E3%83%A9%E3%83%83%E3%82%AF%E3%80%81%E3%82%AD%E3%83%A3%E3%83%B3%E3%83%9A%E3%83%BC%E3%83%B3%E6%83%85%E5%A0%B1%E3%81%A4%E3%81%8D/dp/B00QJDQM9U
p96
(i__main__
ScrapingData
(dp97
g4
S''
sg5
S''
sg6
S''
sg7
g96
sg9
I0
sg10
(lp98
sg12
I0
sg13
S''
sg14
g96
sbtp99
a(Vhttps://www.amazon.co.jp/Amazon-NM460GZ-Kindle-Voyage-Wi-Fi%E3%80%81%E3%82%AD%E3%83%A3%E3%83%B3%E3%83%9A%E3%83%BC%E3%83%B3%E6%83%85%E5%A0%B1%E3%81%A4%E3%81%8D%E3%83%A2%E3%83%87%E3%83%AB%E3%80%81%E9%9B%BB%E5%AD%90%E6%9B%B8%E7%B1%8D%E3%83%AA%E3%83%BC%E3%83%80%E3%83%BC/dp/B00M0EVYCC
p100
(i__main__
ScrapingData
(dp101
g4
S''
sg5
S''
sg6
S''
sg7
g100
sg9
I0
sg10
(lp102
sg12
I0
sg13
S''
sg14
g100
sbtp103
a(Vhttps://www.amazon.co.jp/Kindle-Oasis-Wi-Fi-%E3%83%90%E3%83%83%E3%83%86%E3%83%AA%E3%83%BC%E5%86%85%E8%94%B5%E3%83%AC%E3%82%B6%E3%83%BC%E3%82%AB%E3%83%90%E3%83%BC%E4%BB%98%E5%B1%9E-%E3%82%AD%E3%83%A3%E3%83%B3%E3%83%9A%E3%83%BC%E3%83%B3%E6%83%85%E5%A0%B1%E3%81%A4%E3%81%8D%E3%83%A2%E3%83%87%E3%83%AB/dp/B010EJWHUC
p104
(i__main__
ScrapingData
(dp105
g4
S''
sg5
S''
sg6
S''
sg7
g104
sg9
I0
sg10
(lp106
sg12
I0
sg13
S''
sg14
g104
sbtp107
a(Vhttps://www.amazon.co.jp/Amazon-SV98LN-Fire-%E3%82%BF%E3%83%96%E3%83%AC%E3%83%83%E3%83%88-8GB%E3%80%81%E3%83%96%E3%83%A9%E3%83%83%E3%82%AF/dp/B00Y3TMKKM
p108
(i__main__
ScrapingData
(dp109
g4
S''
sg5
S''
sg6
S''
sg7
g108
sg9
I0
sg10
(lp110
sg12
I0
sg13
S''
sg14
g108
sbtp111
a(Vhttps://www.amazon.co.jp/FireHD6%E3%82%BF%E3%83%96%E3%83%AC%E3%83%83%E3%83%88-6%E3%82%A4%E3%83%B3%E3%83%81-%E6%9C%AC-%E3%83%93%E3%83%87%E3%82%AA-%E3%82%A2%E3%83%97%E3%83%AA/dp/B00KC6TDLY
p112
(i__main__
ScrapingData
(dp113
g4
S''
sg5
S''
sg6
S''
sg7
g112
sg9
I0
sg10
(lp114
sg12
I0
sg13
S''
sg14
g112
sbtp115
a(Vhttps://www.amazon.co.jp/Fire-HD-8-%E3%82%BF%E3%83%96%E3%83%AC%E3%83%83%E3%83%88-8GB%E3%80%81%E3%83%96%E3%83%A9%E3%83%83%E3%82%AF/dp/B00ZAKD2DM
p116
(i__main__
ScrapingData
(dp117
g4
S''
sg5
S''
sg6
S''
sg7
g116
sg9
I0
sg10
(lp118
sg12
I0
sg13
S''
sg14
g116
sbtp119
a(Vhttps://www.amazon.co.jp/Fire-HD-10-%E3%82%BF%E3%83%96%E3%83%AC%E3%83%83%E3%83%88-16GB%E3%80%81%E3%83%96%E3%83%A9%E3%83%83%E3%82%AF/dp/B00ZARBNFE
p120
(i__main__
ScrapingData
(dp121
g4
S''
sg5
S''
sg6
S''
sg7
g120
sg9
I0
sg10
(lp122
sg12
I0
sg13
S''
sg14
g120
sbtp123
a(Vhttps://www.amazon.co.jp/Amazon-W87CUN-Fire-TV-Stick/dp/B00ZVNYLS8
p124
(i__main__
ScrapingData
(dp125
g4
S''
sg5
S''
sg6
S''
sg7
g124
sg9
I0
sg10
(lp126
sg12
I0
sg13
S''
sg14
g124
sbtp127
a(Vhttps://www.amazon.co.jp/%E6%B4%8B%E6%9B%B8-foreign-books-english-books-Kindle
p128
(i__main__
ScrapingData
(dp129
g4
S''
sg5
S''
sg6
S''
sg7
Vhttps://www.amazon.co.jp/%E6%B4%8B%E6%9B%B8-foreign-books-english-books-Kindle/b?ie=UTF8&node=2275259051
p130
sg9
I0
sg10
(lp131
sg12
I0
sg13
S''
sg14
g128
sbtp132
a(Vhttps://www.amazon.co.jp/gp/new-releases/digital-text/2275256051
p133
(i__main__
ScrapingData
(dp134
g4
S''
sg5
S''
sg6
S''
sg7
g133
sg9
I0
sg10
(lp135
sg12
I0
sg13
S''
sg14
g133
sbtp136
a(Vhttps://www.amazon.co.jp/%E7%84%A1%E6%96%99%E6%9C%AC-Kindle-%E3%82%AD%E3%83%B3%E3%83%89%E3%83%AB-%E9%9B%BB%E5%AD%90%E6%9B%B8%E7%B1%8D
p137
(i__main__
ScrapingData
(dp138
g4
S''
sg5
S''
sg6
S''
sg7
Vhttps://www.amazon.co.jp/%E7%84%A1%E6%96%99%E6%9C%AC-Kindle-%E3%82%AD%E3%83%B3%E3%83%89%E3%83%AB-%E9%9B%BB%E5%AD%90%E6%9B%B8%E7%B1%8D/b?ie=UTF8&node=2353025051
p139
sg9
I0
sg10
(lp140
sg12
I0
sg13
S''
sg14
g137
sbtp141
a(Vhttps://www.amazon.co.jp:443/gp/redirect.html?location=https://twitter.com
p142
(i__main__
ScrapingData
(dp143
g4
S''
sg5
S''
sg6
S''
sg7
Vhttps://www.amazon.co.jp:443/gp/redirect.html?location=https://twitter.com/AmazonJPKindle&token=BC5273EAB1B7E571BD3622704B44890CC537FE04&source=standards
p144
sg9
I0
sg10
(lp145
sg12
I0
sg13
S''
sg14
g142
sbtp146
a(Vhttps://www.amazon.co.jp/gp/gss/detail/3878562/
p147
(i__main__
ScrapingData
(dp148
g4
S''
sg5
S''
sg6
S''
sg7
g147
sg9
I0
sg10
(lp149
sg12
I0
sg13
S''
sg14
g147
sbtp150
a(Vhttps://www.amazon.co.jp/%E3%81%99%E3%81%AE%E3%81%AF%E3%82%89%E8%8D%98%E3%81%AE%E7%AE%A1%E7%90%86%E4%BA%BA%E3%81%95%E3%82%93-1-4%E3%82%B3%E3%83%9EKINGS%E3%81%B1%E3%82%8C%E3%81%A3%E3%81%A8%E3%82%B3%E3%83%9F%E3%83%83%E3%82%AF%E3%82%B9-%E3%81%AD%E3%81%93%E3%81%86%E3%82%81-ebook/dp/B00ZWSGAUO
p151
(i__main__
ScrapingData
(dp152
g4
S''
sg5
S''
sg6
S''
sg7
g151
sg9
I0
sg10
(lp153
sg12
I0
sg13
S''
sg14
g151
sbtp154
a(Vhttps://www.amazon.co.jp/gp/product-reviews
p155
(i__main__
ScrapingData
(dp156
g4
S''
sg5
S''
sg6
S''
sg7
Vhttps://www.amazon.co.jp/gp/product-reviews/B00ZWSGAUO?ie=UTF8&showViewpoints=1
p157
sg9
I0
sg10
(lp158
sg12
I0
sg13
S''
sg14
g155
sbtp159
a(Vhttps://www.amazon.co.jp/%E3%81%A9%E3%81%86%E3%81%97%E3%81%A6%E3%82%82%E3%83%A4%E3%82%BB%E3%82%89%E3%82%8C%E3%81%AA%E3%81%8B%E3%81%A3%E3%81%9F%E4%BA%BA%E3%81%9F%E3%81%A1%E3%81%8C%E2%80%9C%E3%81%8A%E3%83%87%E3%83%96%E7%BF%92%E6%85%A3%E2%80%9D%E3%81%AB%E6%B0%97%E3%81%A5%E3%81%84%E3%81%9F%E3%82%89%E3%81%BF%E3%82%8B%E3%81%BF%E3%82%8B%EF%BC%91%EF%BC%90%EF%BD%8B%EF%BD%87%E3%83%A4%E3%82%BB%E3%81%BE%E3%81%97%E3%81%9F-%E3%83%97%E3%83%AC%E3%83%9F%E3%82%A2%E3%83%A0-%E6%89%B6%E6%A1%91%E7%A4%BE%E3%82%B3%E3%83%9F%E3%83%83%E3%82%AF%E3%82%B9-%E3%83%80%E3%82%A4%E3%82%A8%E3%83%83%E3%83%88%E3%82%B3%E3%83%BC%E3%83%81%EF%BC%A5%EF%BC%A9%EF%BC%A3%EF%BC%AF-ebook/dp/B010SG0Z0A
p160
(i__main__
ScrapingData
(dp161
g4
S''
sg5
S''
sg6
S''
sg7
g160
sg9
I0
sg10
(lp162
sg12
I0
sg13
S''
sg14
g160
sbtp163
a(Vhttps://www.amazon.co.jp/citrus-1-%E7%99%BE%E5%90%88%E5%A7%AB%E3%82%B3%E3%83%9F%E3%83%83%E3%82%AF%E3%82%B9-%E3%82%B5%E3%83%96%E3%83%AD%E3%82%A6%E3%82%BF-ebook/dp/B00JB92F0Y
p164
(i__main__
ScrapingData
(dp165
g4
S''
sg5
S''
sg6
S''
sg7
g164
sg9
I0
sg10
(lp166
sg12
I0
sg13
S''
sg14
g164
sbtp167
a(Vhttps://www.amazon.co.jp/%E3%82%B5%E3%83%96%E3%83%AD%E3%82%A6%E3%82%BF/e/B004LW8D8E
p168
(i__main__
ScrapingData
(dp169
g4
S''
sg5
S''
sg6
S''
sg7
g168
sg9
I0
sg10
(lp170
sg12
I0
sg13
S''
sg14
g168
sbtp171
a(Vhttps://www.amazon.co.jp/%E7%AB%8B%E8%8A%B1%E9%A4%A8To-Lie%E3%81%82%E3%82%93%E3%81%90%E3%82%8B-1-%E7%99%BE%E5%90%88%E5%A7%AB%E3%82%B3%E3%83%9F%E3%83%83%E3%82%AF%E3%82%B9-merryhachi-ebook/dp/B00ZOQJ3JE
p172
(i__main__
ScrapingData
(dp173
g4
S''
sg5
S''
sg6
S''
sg7
g172
sg9
I0
sg10
(lp174
sg12
I0
sg13
S''
sg14
g172
sbtp175
a(Vhttps://www.amazon.co.jp/%E8%AB%96%E7%82%B9%E6%80%9D%E8%80%83-%E5%86%85%E7%94%B0-%E5%92%8C%E6%88%90-ebook/dp/B009RO867O
p176
(i__main__
ScrapingData
(dp177
g4
S''
sg5
S''
sg6
S''
sg7
g176
sg9
I0
sg10
(lp178
sg12
I0
sg13
S''
sg14
g176
sbtp179
a(Vhttps://www.amazon.co.jp/%E5%86%85%E7%94%B0-%E5%92%8C%E6%88%90/e/B003UWQE8W
p180
(i__main__
ScrapingData
(dp181
g4
S''
sg5
S''
sg6
S''
sg7
g180
sg9
I0
sg10
(lp182
sg12
I0
sg13
S''
sg14
g180
sbtp183
a(Vhttps://www.amazon.co.jp/%E7%B5%B5%E3%81%A7%E8%A6%8B%E3%81%A6%E3%82%8F%E3%81%8B%E3%82%8BIoT-%E3%82%BB%E3%83%B3%E3%82%B5%E3%81%AE%E4%BB%95%E7%B5%84%E3%81%BF%E3%81%A8%E6%B4%BB%E7%94%A8-%E6%A0%AA%E5%BC%8F%E4%BC%9A%E7%A4%BE%EF%BC%AE%EF%BC%B4%EF%BC%B4%E3%83%87%E3%83%BC%E3%82%BF-ebook/dp/B00UX9VJDA
p184
(i__main__
ScrapingData
(dp185
g4
S''
sg5
S''
sg6
S''
sg7
g184
sg9
I0
sg10
(lp186
sg12
I0
sg13
S''
sg14
g184
sbtp187
a(Vhttps://www.amazon.co.jp/%E6%B2%B3%E6%9D%91-%E9%9B%85%E4%BA%BA/e/B0065AMS40
p188
(i__main__
ScrapingData
(dp189
g4
S''
sg5
S''
sg6
S''
sg7
g188
sg9
I0
sg10
(lp190
sg12
I0
sg13
S''
sg14
g188
sbtp191
a(Vhttps://www.amazon.co.jp/%E5%A4%A7%E5%A1%9A-%E7%B4%98%E5%8F%B2/e/B00UXBIGZC
p192
(i__main__
ScrapingData
(dp193
g4
S''
sg5
S''
sg6
S''
sg7
g192
sg9
I0
sg10
(lp194
sg12
I0
sg13
S''
sg14
g192
sbtp195
a(Vhttps://www.amazon.co.jp/%E5%B0%8F%E5%B3%B6-%E5%BA%B7%E5%B9%B3/e/B00UXG2LXK
p196
(i__main__
ScrapingData
(dp197
g4
S''
sg5
S''
sg6
S''
sg7
g196
sg9
I0
sg10
(lp198
sg12
I0
sg13
S''
sg14
g196
sbtp199
a(Vhttps://www.amazon.co.jp/%E3%82%AD%E3%83%A3%E3%83%A9%E3%82%AF%E3%82%BF%E3%83%BC%E3%83%87%E3%82%B6%E3%82%A4%E3%83%B3%E3%81%AE%E6%95%99%E7%A7%91%E6%9B%B8-%E3%83%A1%E3%82%A4%E3%82%AD%E3%83%B3%E3%82%B0%E3%81%A7%E5%AD%A6%E3%81%B6%E9%AD%85%E5%8A%9B%E7%9A%84%E3%81%AA%E4%BA%BA%E7%89%A9%E3%82%A4%E3%83%A9%E3%82%B9%E3%83%88%E3%81%AE%E6%8F%8F%E3%81%8D%E6%96%B9-%E6%A0%AA%E5%BC%8F%E4%BC%9A%E7%A4%BEPlayce-ebook/dp/B019BP92JO
p200
(i__main__
ScrapingData
(dp201
g4
S''
sg5
S''
sg6
S''
sg7
g200
sg9
I0
sg10
(lp202
sg12
I0
sg13
S''
sg14
g200
sbtp203
a(Vhttps://www.amazon.co.jp/%E5%BF%99%E3%81%97%E3%81%84%E4%BA%BA%E3%81%AETOEIC-R-%E3%83%86%E3%82%B9%E3%83%88%E3%81%A8%E3%83%93%E3%82%B8%E3%83%8D%E3%82%B9%E8%8B%B1%E8%AA%9E%E3%81%AE%E5%90%8C%E6%99%82%E5%AD%A6%E7%BF%92%E6%B3%95-%E5%AC%89%E9%87%8E%E5%85%8B%E4%B9%9F-ebook/dp/B016648A5U
p204
(i__main__
ScrapingData
(dp205
g4
S''
sg5
S''
sg6
S''
sg7
g204
sg9
I0
sg10
(lp206
sg12
I0
sg13
S''
sg14
g204
sbtp207
a(Vhttps://www.amazon.co.jp/%E5%A4%96%E8%B3%87%E7%B3%BB%E9%87%91%E8%9E%8D%E3%83%9E%E3%83%B3%E3%81%8C%E3%82%8F%E3%81%8C%E5%AD%90%E3%81%AB%E6%95%99%E3%81%88%E3%81%9F%E3%81%84%E3%80%8C%E3%81%8A%E9%87%91%E3%80%8D%E3%81%A8%E3%80%8C%E6%8A%95%E8%B3%87%E3%80%8D%E3%81%AE%E6%9C%AC%E5%BD%93%E3%81%AE%E8%A9%B1-%E3%82%B8%E3%83%A7%E3%83%B3%E5%A4%AA%E9%83%8E-ebook/dp/B01076Y8JK
p208
(i__main__
ScrapingData
(dp209
g4
S''
sg5
S''
sg6
S''
sg7
g208
sg9
I0
sg10
(lp210
sg12
I0
sg13
S''
sg14
g208
sbtp211
a(Vhttps://www.amazon.co.jp/%E3%81%82%E3%82%84%E3%82%8114-1-%E7%99%BE%E5%90%88%E5%A7%AB%E3%82%B3%E3%83%9F%E3%83%83%E3%82%AF%E3%82%B9-%E5%A4%A9%E9%87%8E-%E3%81%97%E3%82%85%E3%81%AB%E3%82%93%E3%81%9F-ebook/dp/B00S7X8TXW
p212
(i__main__
ScrapingData
(dp213
g4
S''
sg5
S''
sg6
S''
sg7
g212
sg9
I0
sg10
(lp214
sg12
I0
sg13
S''
sg14
g212
sbtp215
a(Vhttps://www.amazon.co.jp/%E5%A4%A9%E9%87%8E-%E3%81%97%E3%82%85%E3%81%AB%E3%82%93%E3%81%9F/e/B00IP8YLPE
p216
(i__main__
ScrapingData
(dp217
g4
S''
sg5
S''
sg6
S''
sg7
g216
sg9
I0
sg10
(lp218
sg12
I0
sg13
S''
sg14
g216
sbtp219
a(Vhttps://www.amazon.co.jp/%E6%8A%B1%E3%81%91%E3%82%8B%E3%83%8A%E3%83%B3%E3%83%91%E8%A1%93-%E2%94%80%E2%94%80%E5%87%BA%E4%BC%9A%E3%81%84%E3%81%8B%E3%82%89%E3%83%99%E3%83%83%E3%83%89%E3%81%B8%E3%81%84%E3%81%9F%E3%82%8B%E3%82%A2%E3%83%AB%E3%83%95%E3%82%A1%E7%94%B7%E3%81%AE%E5%BF%83%E5%BE%97-%E3%83%AB%E3%83%BC%E3%82%B7%E3%83%A5V-ebook/dp/B00WWRM2QE
p220
(i__main__
ScrapingData
(dp221
g4
S''
sg5
S''
sg6
S''
sg7
g220
sg9
I0
sg10
(lp222
sg12
I0
sg13
S''
sg14
g220
sbtp223
a(Vhttps://www.amazon.co.jp/%E8%B5%B7%E6%A5%AD1%E5%B9%B4%E7%9B%AE%E3%81%AE%E6%95%99%E7%A7%91%E6%9B%B8-%E4%BB%8A%E4%BA%95%E5%AD%9D-ebook/dp/B017U24YKW
p224
(i__main__
ScrapingData
(dp225
g4
S''
sg5
S''
sg6
S''
sg7
g224
sg9
I0
sg10
(lp226
sg12
I0
sg13
S''
sg14
g224
sbtp227
a(Vhttps://www.amazon.co.jp/%E4%BB%8A%E4%BA%95-%E5%AD%9D/e/B004LW86RW
p228
(i__main__
ScrapingData
(dp229
g4
S''
sg5
S''
sg6
S''
sg7
g228
sg9
I0
sg10
(lp230
sg12
I0
sg13
S''
sg14
g228
sbtp231
a(Vhttps://www.amazon.co.jp/%E5%AE%9F%E9%8C%B2-%E3%81%8A%E5%AF%BA%E3%81%AE%E6%80%AA%E8%AB%87-%E9%AB%98%E7%94%B0%E5%AF%85%E5%BD%A6-ebook/dp/B00YDS9U4C
p232
(i__main__
ScrapingData
(dp233
g4
S''
sg5
S''
sg6
S''
sg7
g232
sg9
I0
sg10
(lp234
sg12
I0
sg13
S''
sg14
g232
sbtp235
a(Vhttps://www.amazon.co.jp/%E9%AB%98%E7%94%B0-%E5%AF%85%E5%BD%A6/e/B004LUICDM
p236
(i__main__
ScrapingData
(dp237
g4
S''
sg5
S''
sg6
S''
sg7
g236
sg9
I0
sg10
(lp238
sg12
I0
sg13
S''
sg14
g236
sbtp239
a(Vhttps://www.amazon.co.jp/%E5%A4%A7%E5%AF%8C%E8%B1%AA%E3%81%8C%E5%AE%9F%E8%B7%B5%E3%81%97%E3%81%A6%E3%81%84%E3%82%8B%E3%81%8A%E9%87%91%E3%81%AE%E5%93%B2%E5%AD%A6-%E5%86%A8%E7%94%B0%E5%92%8C%E6%88%90-ebook/dp/B01EWEVXVE
p240
(i__main__
ScrapingData
(dp241
g4
S''
sg5
S''
sg6
S''
sg7
g240
sg9
I0
sg10
(lp242
sg12
I0
sg13
S''
sg14
g240
sbtp243
a(Vhttps://www.amazon.co.jp/%E7%8F%BE%E5%A0%B4%E3%81%A7%E5%BD%B9%E7%AB%8B%E3%81%A4Excel%EF%BC%86Access%E3%83%87%E3%83%BC%E3%82%BF%E9%80%A3%E6%90%BA%E3%83%BB%E6%B4%BB%E7%94%A8%E3%82%AC%E3%82%A4%E3%83%89-2013-2010-2007%E5%AF%BE%E5%BF%9C-%E7%AB%8B%E5%B1%B1-ebook/dp/B00U24P6OY
p244
(i__main__
ScrapingData
(dp245
g4
S''
sg5
S''
sg6
S''
sg7
g244
sg9
I0
sg10
(lp246
sg12
I0
sg13
S''
sg14
g244
sbtp247
a(Vhttps://www.amazon.co.jp/%E7%AB%8B%E5%B1%B1-%E7%A7%80%E5%88%A9/e/B004LA5SL6
p248
(i__main__
ScrapingData
(dp249
g4
S''
sg5
S''
sg6
S''
sg7
g248
sg9
I0
sg10
(lp250
sg12
I0
sg13
S''
sg14
g248
sbtp251
a(Vhttps://www.amazon.co.jp/Excel-VBA%E3%81%A7IE%E3%82%92%E6%80%9D%E3%81%84%E3%81%AE%E3%81%BE%E3%81%BE%E3%81%AB%E6%93%8D%E4%BD%9C%E3%81%A7%E3%81%8D%E3%82%8B%E3%83%97%E3%83%AD%E3%82%B0%E3%83%A9%E3%83%9F%E3%83%B3%E3%82%B0%E8%A1%93-2013-2010-2003%E5%AF%BE%E5%BF%9C-ebook/dp/B00CPGWYRE
p252
(i__main__
ScrapingData
(dp253
g4
S''
sg5
S''
sg6
S''
sg7
g252
sg9
I0
sg10
(lp254
sg12
I0
sg13
S''
sg14
g252
sbtp255
a(Vhttps://www.amazon.co.jp/%E8%BF%91%E7%94%B0-%E4%BC%B8%E7%9F%A2/e/B004LW96LM
p256
(i__main__
ScrapingData
(dp257
g4
S''
sg5
S''
sg6
S''
sg7
g256
sg9
I0
sg10
(lp258
sg12
I0
sg13
S''
sg14
g256
sbtp259
a(Vhttps://www.amazon.co.jp/%E6%A4%8D%E6%9C%A8-%E6%82%A0%E4%BA%8C/e/B00C9SR66M
p260
(i__main__
ScrapingData
(dp261
g4
S''
sg5
S''
sg6
S''
sg7
g260
sg9
I0
sg10
(lp262
sg12
I0
sg13
S''
sg14
g260
sbtp263
a(Vhttps://www.amazon.co.jp/99%EF%BC%85%E3%81%AE%E5%A5%B3%E6%80%A7%E3%81%AB%E5%A5%BD%E3%81%8B%E3%82%8C%E3%82%8B%E5%A4%A7%E4%BA%BA%E3%81%AE%E3%83%A2%E3%83%86%E3%83%AB%E3%83%BC%E3%83%AB44-%E3%82%B9%E3%83%9E%E3%83%BC%E3%83%88%E3%83%96%E3%83%83%E3%82%AF%E3%82%B9-%E6%92%AD%E6%91%A9-%E6%97%A9%E8%8B%97-ebook/dp/B016D403NK
p264
(i__main__
ScrapingData
(dp265
g4
S''
sg5
S''
sg6
S''
sg7
g264
sg9
I0
sg10
(lp266
sg12
I0
sg13
S''
sg14
g264
sbtp267
a(Vhttps://www.amazon.co.jp/%E3%82%AA%E3%83%8B%E3%83%BC%E3%83%AB%E3%81%AE%E7%A9%BA%E5%A3%B2%E3%82%8A%E7%B7%B4%E7%BF%92%E5%B8%96-%E3%82%A6%E3%82%A3%E3%83%AA%E3%82%A2%E3%83%A0%E3%83%BBJ-%E3%82%AA%E3%83%8B%E3%83%BC%E3%83%AB-ebook/dp/B00WRZ9F16
p268
(i__main__
ScrapingData
(dp269
g4
S''
sg5
S''
sg6
S''
sg7
g268
sg9
I0
sg10
(lp270
sg12
I0
sg13
S''
sg14
g268
sbtp271
a(Vhttps://www.amazon.co.jp/%E3%82%A6%E3%82%A3%E3%83%AA%E3%82%A2%E3%83%A0%E3%83%BBJ%EF%BC%8E%E3%82%AA%E3%83%8B%E2%88%92%E3%83%AB/e/B000AQ1QAM
p272
(i__main__
ScrapingData
(dp273
g4
S''
sg5
S''
sg6
S''
sg7
g272
sg9
I0
sg10
(lp274
sg12
I0
sg13
S''
sg14
g272
sbtp275
a(Vhttps://www.amazon.co.jp/%E3%82%AE%E3%83%AB%E3%83%BB%E3%83%A2%E3%83%A9%E3%83%AC%E3%82%B9/e/B004LV2C3C
p276
(i__main__
ScrapingData
(dp277
g4
S''
sg5
S''
sg6
S''
sg7
g276
sg9
I0
sg10
(lp278
sg12
I0
sg13
S''
sg14
g276
sbtp279
a(Vhttps://www.amazon.co.jp/%E5%AD%A6%E7%A0%94%E3%82%AB%E3%83%A1%E3%83%A9%E3%83%A0%E3%83%83%E3%82%AF-%E3%83%97%E3%83%AD%E3%81%AE%E6%8A%80%E3%82%92%E8%BA%AB%E3%81%AB%E3%81%A4%E3%81%91%E3%82%8B-%E3%82%B9%E3%83%88%E3%83%AD%E3%83%9C%E3%83%86%E3%82%AF%E3%83%8B%E3%83%83%E3%82%AF%E5%AE%8C%E5%85%A8%E3%83%9E%E3%82%B9%E3%82%BF%E3%83%BC-%EF%BC%A3%EF%BC%A1%EF%BC%B0%EF%BC%A1%E7%B7%A8%E9%9B%86%E9%83%A8-ebook/dp/B00OT7YMJK
p280
(i__main__
ScrapingData
(dp281
g4
S''
sg5
S''
sg6
S''
sg7
g280
sg9
I0
sg10
(lp282
sg12
I0
sg13
S''
sg14
g280
sbtp283
a(Vhttps://www.amazon.co.jp/%E5%90%88%E6%A0%BC%E3%82%8B%E6%8A%80%E8%A1%93-%E5%AE%87%E9%83%BD%E5%87%BA-%E9%9B%85%E5%B7%B3-ebook/dp/B0091P7NSC
p284
(i__main__
ScrapingData
(dp285
g4
S''
sg5
S''
sg6
S''
sg7
g284
sg9
I0
sg10
(lp286
sg12
I0
sg13
S''
sg14
g284
sbtp287
a(Vhttps://www.amazon.co.jp/%E5%AE%87%E9%83%BD%E5%87%BA-%E9%9B%85%E5%B7%B3/e/B004KLKX52
p288
(i__main__
ScrapingData
(dp289
g4
S''
sg5
S''
sg6
S''
sg7
g288
sg9
I0
sg10
(lp290
sg12
I0
sg13
S''
sg14
g288
sbtp291
a(Vhttps://www.amazon.co.jp/%E9%80%B1%E5%88%8A%E5%8C%97%E6%96%97-vol-4-%E3%83%87%E3%82%A3%E3%83%BC%E3%83%B3%E3%83%BB%E3%83%95%E3%82%B8%E3%82%AA%E3%82%AB-ebook/dp/B01HM5SXGS
p292
(i__main__
ScrapingData
(dp293
g4
S''
sg5
S''
sg6
S''
sg7
g292
sg9
I0
sg10
(lp294
sg12
I0
sg13
S''
sg14
g292
sbtp295
a(Vhttps://www.amazon.co.jp/%E9%80%B1%E5%88%8ASPA-%E3%82%B9%E3%83%91-2016%E5%B9%B4-%E9%80%B1%E5%88%8A%EF%BC%B3%EF%BC%B0%EF%BC%A1%EF%BC%81-%E3%83%87%E3%82%B8%E3%82%BF%E3%83%AB%E9%9B%91%E8%AA%8C-ebook/dp/B01HYUSBD6
p296
(i__main__
ScrapingData
(dp297
g4
S''
sg5
S''
sg6
S''
sg7
g296
sg9
I0
sg10
(lp298
sg12
I0
sg13
S''
sg14
g296
sbtp299
a(Vhttps://www.amazon.co.jp/%E3%81%AA%E3%81%9C%E3%80%81%E3%81%82%E3%81%AA%E3%81%9F%E3%81%AE%E4%BB%95%E4%BA%8B%E3%81%AF%E7%B5%82%E3%82%8F%E3%82%89%E3%81%AA%E3%81%84%E3%81%AE%E3%81%8B-%E3%82%B9%E3%83%94%E3%83%BC%E3%83%89%E3%81%AF%E6%9C%80%E5%BC%B7%E3%81%AE%E6%AD%A6%E5%99%A8%E3%81%A7%E3%81%82%E3%82%8B-%E4%B8%AD%E5%B3%B6%E8%81%A1-ebook/dp/B01GPCKJWK
p300
(i__main__
ScrapingData
(dp301
g4
S''
sg5
S''
sg6
S''
sg7
g300
sg9
I0
sg10
(lp302
sg12
I0
sg13
S''
sg14
g300
sbtp303
a(Vhttps://www.amazon.co.jp/%E4%B8%AD%E5%B3%B6-%E8%81%A1/e/B004L52O9A
p304
(i__main__
ScrapingData
(dp305
g4
S''
sg5
S''
sg6
S''
sg7
g304
sg9
I0
sg10
(lp306
sg12
I0
sg13
S''
sg14
g304
sbtp307
a(Vhttps://www.amazon.co.jp/%E9%80%B1%E5%88%8A%E3%82%A2%E3%82%B9%E3%82%AD%E3%83%BC-No-1085-%EF%BC%882016%E5%B9%B47%E6%9C%885%E6%97%A5%E7%99%BA%E8%A1%8C%EF%BC%89-%E9%9B%91%E8%AA%8C-ebook/dp/B01HXE9RWW
p308
(i__main__
ScrapingData
(dp309
g4
S''
sg5
S''
sg6
S''
sg7
g308
sg9
I0
sg10
(lp310
sg12
I0
sg13
S''
sg14
g308
sbtp311
a(Vhttps://www.amazon.co.jp/%E9%A2%A8%E3%81%AE%E6%AD%8C%E3%82%92%E8%81%B4%E3%81%91-%E8%AC%9B%E8%AB%87%E7%A4%BE%E6%96%87%E5%BA%AB-%E6%9D%91%E4%B8%8A%E6%98%A5%E6%A8%B9-ebook/dp/B01G6MF4J2
p312
(i__main__
ScrapingData
(dp313
g4
S''
sg5
S''
sg6
S''
sg7
g312
sg9
I0
sg10
(lp314
sg12
I0
sg13
S''
sg14
g312
sbtp315
a(Vhttps://www.amazon.co.jp/%E6%9D%91%E4%B8%8A-%E6%98%A5%E6%A8%B9/e/B000AP7AFI
p316
(i__main__
ScrapingData
(dp317
g4
S''
sg5
S''
sg6
S''
sg7
g316
sg9
I0
sg10
(lp318
sg12
I0
sg13
S''
sg14
g316
sbtp319
a(Vhttps://www.amazon.co.jp/%EF%BC%AE%EF%BC%A8%EF%BC%AB%E3%83%A9%E3%82%B8%E3%82%AA-%E3%83%A9%E3%82%B8%E3%82%AA%E8%8B%B1%E4%BC%9A%E8%A9%B1-2016%E5%B9%B4-%EF%BC%BB%E9%9B%91%E8%AA%8C%EF%BC%BD-NHK%E3%83%86%E3%82%AD%E3%82%B9%E3%83%88-ebook/dp/B01CR05XY8
p320
(i__main__
ScrapingData
(dp321
g4
S''
sg5
S''
sg6
S''
sg7
g320
sg9
I0
sg10
(lp322
sg12
I0
sg13
S''
sg14
g320
sbtp323
a(Vhttps://www.amazon.co.jp/%E5%85%A8%E9%83%A8%E3%83%AC%E3%83%B3%E3%83%81%E3%83%B3%EF%BC%81-%E3%82%84%E3%81%9B%E3%82%8B%E3%81%8A%E3%81%8B%E3%81%9A-%E4%BD%9C%E3%82%8A%E3%81%8A%E3%81%8D%EF%BD%9E%E6%99%82%E7%9F%AD%E3%80%81%E6%89%8B%E9%96%93%E3%81%AA%E3%81%97%E3%80%81%E5%A4%B1%E6%95%97%E3%81%AA%E3%81%97%EF%BD%9E-%E6%9F%B3%E6%BE%A4%E8%8B%B1%E5%AD%90-ebook/dp/B01H2W64SK
p324
(i__main__
ScrapingData
(dp325
g4
S''
sg5
S''
sg6
S''
sg7
g324
sg9
I0
sg10
(lp326
sg12
I0
sg13
S''
sg14
g324
sbtp327
a(Vhttps://www.amazon.co.jp/Kindle-Nexus-%E3%82%BF%E3%83%96%E3%83%AC%E3%83%83%E3%83%88%E9%98%B2%E6%B0%B4%E3%82%B1%E3%83%BC%E3%82%B9-6-7%E3%82%A4%E3%83%B3%E3%83%81%E7%94%A8-%E3%81%8A%E9%A2%A8%E5%91%82%E3%81%A7%E3%82%82/dp/B00PU0D69C
p328
(i__main__
ScrapingData
(dp329
g4
S''
sg5
S''
sg6
S''
sg7
g328
sg9
I0
sg10
(lp330
sg12
I0
sg13
S''
sg14
g328
sbtp331
a(Vhttps://www.amazon.co.jp/%E3%80%90Amazon%E8%AA%8D%E5%AE%9A%E3%80%91%E3%82%BF%E3%83%96%E3%83%AC%E3%83%83%E3%83%88-%E8%A7%92%E5%BA%A6%E8%AA%BF%E6%95%B4%E5%8F%AF%E8%83%BD-NuPro-Kindle-iPhone/dp/B00VHNRPGG
p332
(i__main__
ScrapingData
(dp333
g4
S''
sg5
S''
sg6
S''
sg7
g332
sg9
I0
sg10
(lp334
sg12
I0
sg13
S''
sg14
g332
sbtp335
a(Vhttps://www.amazon.co.jp/Amazon-53-002555-%E3%83%97%E3%83%AC%E3%83%9F%E3%82%A2%E3%83%A0%E3%82%A4%E3%83%A4%E3%83%9B%E3%83%B3-%EF%BC%88%E3%83%AA%E3%83%A2%E3%82%B3%E3%83%B3%E3%83%BB%E3%83%9E%E3%82%A4%E3%82%AF%E4%BB%98-%E3%83%96%E3%83%A9%E3%83%83%E3%82%AF%EF%BC%89/dp/B00HWHTGOK
p336
(i__main__
ScrapingData
(dp337
g4
S''
sg5
S''
sg6
S''
sg7
g336
sg9
I0
sg10
(lp338
sg12
I0
sg13
S''
sg14
g336
sbtp339
a(Vhttps://www.amazon.co.jp/%E3%80%90%E3%82%A2%E3%83%9E%E3%82%BE%E3%83%B3%E9%99%90%E5%AE%9A%E3%80%91-PORTER-%E3%82%BF%E3%83%96%E3%83%AC%E3%83%83%E3%83%88%E3%82%B1%E3%83%BC%E3%82%B9-6-7%E3%82%A4%E3%83%B3%E3%83%81%E3%82%BF%E3%83%96%E3%83%AC%E3%83%83%E3%83%88%E7%94%A8-%E3%83%96%E3%83%A9%E3%83%83%E3%82%AF/dp/B00PQ716E6
p340
(i__main__
ScrapingData
(dp341
g4
S''
sg5
S''
sg6
S''
sg7
g340
sg9
I0
sg10
(lp342
sg12
I0
sg13
S''
sg14
g340
sbtp343
a(Vhttps://www.amazon.co.jp/Amazon-HDMI%E3%82%A2%E3%83%80%E3%83%97%E3%82%BF-%E3%83%86%E3%83%AC%E3%83%93%E3%81%AE%E5%A4%A7%E7%94%BB%E9%9D%A2%E3%81%A7%E6%98%A0%E7%94%BB%E3%82%84%E5%86%99%E7%9C%9F%E3%82%92%E6%A5%BD%E3%81%97%E3%82%82%E3%81%86-Fire-8-9%E5%AF%BE%E5%BF%9C/dp/B00KVSAJHK
p344
(i__main__
ScrapingData
(dp345
g4
S''
sg5
S''
sg6
S''
sg7
g344
sg9
I0
sg10
(lp346
sg12
I0
sg13
S''
sg14
g344
sbtp347
a(Vhttps://www.amazon.co.jp/%E3%80%90Kindle-Paperwhite-journal-standard-Furniture%E6%9C%AC%E9%9D%A9%E3%82%B9%E3%83%AA%E3%83%BC%E3%83%96/dp/B00IFSTY92
p348
(i__main__
ScrapingData
(dp349
g4
S''
sg5
S''
sg6
S''
sg7
g348
sg9
I0
sg10
(lp350
sg12
I0
sg13
S''
sg14
g348
sbtp351
a(Vhttps://www.amazon.co.jp/BEAMS-Kindle-Fire-HDX%E7%94%A8-%E3%82%A8%E3%83%8A%E3%83%A1%E3%83%AB%E3%83%96%E3%83%AA%E3%83%BC%E3%83%95%E3%82%B1%E3%83%BC%E3%82%B9/dp/B00JGKVLI0
p352
(i__main__
ScrapingData
(dp353
g4
S''
sg5
S''
sg6
S''
sg7
g352
sg9
I0
sg10
(lp354
sg12
I0
sg13
S''
sg14
g352
sbtp355
a(Vhttps://www.amazon.co.jp/Moshi-99MO035021-Vortex-Premium-%E3%82%AB%E3%83%8A%E3%83%AB%E5%9E%8B%E3%82%A4%E3%83%A4%E3%83%9B%E3%83%B3/dp/B0046W5EQI
p356
(i__main__
ScrapingData
(dp357
g4
S''
sg5
S''
sg6
S''
sg7
g356
sg9
I0
sg10
(lp358
sg12
I0
sg13
S''
sg14
g356
sbtp359
a(Vhttps://www.amazon.co.jp/%E3%80%90Kindle-Kindle-Paperwhite-%E3%82%A2%E3%83%9E%E3%82%BE%E3%83%B3%E9%99%90%E5%AE%9A-PORTER/dp/B00CEMHK4G
p360
(i__main__
ScrapingData
(dp361
g4
S''
sg5
S''
sg6
S''
sg7
g360
sg9
I0
sg10
(lp362
sg12
I0
sg13
S''
sg14
g360
sbtp363
a(Vhttps://www.amazon.co.jp/BUFFALO-%E6%B0%97%E6%B3%A1%E3%81%8C%E3%81%A7%E3%81%8D%E3%81%AB%E3%81%8F%E3%81%84-%E5%8F%8D%E5%B0%84%E9%98%B2%E6%AD%A2%E4%BF%9D%E8%AD%B7%E3%83%95%E3%82%A3%E3%83%AB%E3%83%A0-BSTPKDT12FT-Paperwhite%E7%94%A8/dp/B009UQCXC8
p364
(i__main__
ScrapingData
(dp365
g4
S''
sg5
S''
sg6
S''
sg7
g364
sg9
I0
sg10
(lp366
sg12
I0
sg13
S''
sg14
g364
sbtp367
a(Vhttps://www.amazon.co.jp/Amazon-Kindle-1-5m-%E3%83%9E%E3%82%A4%E3%82%AF%E3%83%ADUSB%E3%82%B1%E3%83%BC%E3%83%96%E3%83%AB%E3%80%81%E9%BB%92-%E5%85%A8%E3%81%A6%E3%81%AEKindle%E7%AB%AF%E6%9C%AB%E3%81%AB%E5%AF%BE%E5%BF%9C/dp/B006GWO5NE
p368
(i__main__
ScrapingData
(dp369
g4
S''
sg5
S''
sg6
S''
sg7
g368
sg9
I0
sg10
(lp370
sg12
I0
sg13
S''
sg14
g368
sbtp371
a(Vhttps://www.amazon.co.jp/s
p372
(i__main__
ScrapingData
(dp373
g4
S''
sg5
S''
sg6
S''
sg7
Vhttps://www.amazon.co.jp/s/ref=s9_dnav_bw_ir01_s?__mk_ja_JP=%83%4A%83%5E%83%4A%83%69&node=2292699051&pf_rd_m=AN1VRQENFRJN5&pf_rd_s=merchandised-search-7&pf_rd_r=NJPVFA47FS46GD8XM7DG&pf_rd_t=101&pf_rd_p=205067029&pf_rd_i=2250738051
p374
sg9
I0
sg10
(lp375
sg12
I0
sg13
S''
sg14
g372
sbtp376
a(Vhttps://www.amazon.co.jp/%E7%A5%9E%E3%80%85%E3%81%AE%E6%8C%87%E7%B4%8B-%E4%B8%8A-%E7%A5%9E%E3%80%85%E3%81%AE%E6%8C%87%E7%B4%8B-%E8%A7%92%E5%B7%9D%E6%96%87%E5%BA%AB-%E3%82%B0%E3%83%A9%E3%83%8F%E3%83%A0%E3%83%BB%E3%83%8F%E3%83%B3%E3%82%B3%E3%83%83%E3%82%AF-ebook/dp/B01GT3VA9G
p377
(i__main__
ScrapingData
(dp378
g4
S''
sg5
S''
sg6
S''
sg7
g377
sg9
I0
sg10
(lp379
sg12
I0
sg13
S''
sg14
g377
sbtp380
a(Vhttps://www.amazon.co.jp/%E7%A5%9E%E3%80%85%E3%81%AE%E6%8C%87%E7%B4%8B-%E4%B8%8B-%E7%A5%9E%E3%80%85%E3%81%AE%E6%8C%87%E7%B4%8B-%E8%A7%92%E5%B7%9D%E6%96%87%E5%BA%AB-%E3%82%B0%E3%83%A9%E3%83%8F%E3%83%A0%E3%83%BB%E3%83%8F%E3%83%B3%E3%82%B3%E3%83%83%E3%82%AF-ebook/dp/B01GT3VA96
p381
(i__main__
ScrapingData
(dp382
g4
S''
sg5
S''
sg6
S''
sg7
g381
sg9
I0
sg10
(lp383
sg12
I0
sg13
S''
sg14
g381
sbtp384
a(Vhttps://www.amazon.co.jp/%E3%81%AD%E3%81%BC%E3%81%91%E4%BA%BA%E7%94%9F-%E3%81%A1%E3%81%8F%E3%81%BE%E6%96%87%E5%BA%AB-%E6%B0%B4%E6%9C%A8%E3%81%97%E3%81%92%E3%82%8B-ebook/dp/B00E5XAU4Y
p385
(i__main__
ScrapingData
(dp386
g4
S''
sg5
S''
sg6
S''
sg7
g385
sg9
I0
sg10
(lp387
sg12
I0
sg13
S''
sg14
g385
sbtp388
a(Vhttps://www.amazon.co.jp/%E7%95%B0%E4%B8%96%E7%95%8C%E5%B1%85%E9%85%92%E5%B1%8B%E3%80%8C%E3%81%AE%E3%81%B6%E3%80%8D-2-%E8%A7%92%E5%B7%9D%E3%82%B3%E3%83%9F%E3%83%83%E3%82%AF%E3%82%B9%E3%83%BB%E3%82%A8%E3%83%BC%E3%82%B9-%E3%83%B4%E3%82%A1%E3%83%BC%E3%82%B8%E3%83%8B%E3%82%A2%E4%BA%8C%E7%AD%89%E5%85%B5-ebook/dp/B01HNJLOR8
p389
(i__main__
ScrapingData
(dp390
g4
S''
sg5
S''
sg6
S''
sg7
g389
sg9
I0
sg10
(lp391
sg12
I0
sg13
S''
sg14
g389
sbtp392
a(Vhttps://www.amazon.co.jp/%E3%83%99%E3%83%AB%E3%82%BB%E3%83%AB%E3%82%AF-38-%E3%83%A4%E3%83%B3%E3%82%B0%E3%82%A2%E3%83%8B%E3%83%9E%E3%83%AB%E3%82%B3%E3%83%9F%E3%83%83%E3%82%AF%E3%82%B9-%E4%B8%89%E6%B5%A6%E5%BB%BA%E5%A4%AA%E9%83%8E-ebook/dp/B01GZH4AGQ
p393
(i__main__
ScrapingData
(dp394
g4
S''
sg5
S''
sg6
S''
sg7
g393
sg9
I0
sg10
(lp395
sg12
I0
sg13
S''
sg14
g393
sbtp396
a(Vhttps://www.amazon.co.jp/%E9%AD%94%E7%8E%8B%E3%81%AE%E5%A7%8B%E3%82%81%E6%96%B9-COMIC-2-%E3%83%B4%E3%82%A1%E3%83%AB%E3%82%AD%E3%83%AA%E3%83%BC%E3%82%B3%E3%83%9F%E3%83%83%E3%82%AF%E3%82%B9-%E5%B0%8F%E5%AE%AE%E5%88%A9%E5%85%AC-ebook/dp/B01HHPWPJO
p397
(i__main__
ScrapingData
(dp398
g4
S''
sg5
S''
sg6
S''
sg7
g397
sg9
I0
sg10
(lp399
sg12
I0
sg13
S''
sg14
g397
sbtp400
a(Vhttps://www.amazon.co.jp/%E3%83%97%E3%83%AD%E3%83%95%E3%82%A7%E3%83%83%E3%82%B7%E3%83%A7%E3%83%8A%E3%83%AB%E3%83%BB%E3%83%8D%E3%82%B4%E3%82%B7%E3%82%A8%E3%83%BC%E3%82%BF%E3%83%BC%E3%81%AE%E9%A0%AD%E3%81%AE%E4%B8%AD%E2%80%95%E3%80%8C%E6%B1%BA%E3%81%BE%E3%82%8B%EF%BC%81%E3%80%8D%EF%BC%97%E3%81%A4%E3%81%AE%E4%BA%A4%E6%B8%89%E8%A1%93-%E8%97%A4%E4%BA%95-%E4%B8%80%E9%83%8E-ebook/dp/B00DEC3FSU
p401
(i__main__
ScrapingData
(dp402
g4
S''
sg5
S''
sg6
S''
sg7
g401
sg9
I0
sg10
(lp403
sg12
I0
sg13
S''
sg14
g401
sbtp404
a(Vhttps://www.amazon.co.jp/%E7%9F%A5%E7%9A%84%E5%B9%B8%E7%A6%8F%E3%81%AE%E6%8A%80%E8%A1%93-%E8%87%AA%E7%94%B1%E3%81%AA%E4%BA%BA%E7%94%9F%E3%81%AE%E3%81%9F%E3%82%81%E3%81%AE40%E3%81%AE%E7%89%A9%E8%AA%9E-%E6%A9%98%E7%8E%B2-ebook/dp/B00DH87QIG
p405
(i__main__
ScrapingData
(dp406
g4
S''
sg5
S''
sg6
S''
sg7
g405
sg9
I0
sg10
(lp407
sg12
I0
sg13
S''
sg14
g405
sbtp408
a(Vhttps://www.amazon.co.jp/%E6%9C%AA%E6%9D%A5%E4%BA%88%E8%A6%8B%E3%80%9C%E3%80%8C%E6%9C%AA%E6%9D%A5%E3%81%8C%E8%A6%8B%E3%81%88%E3%82%8B%E4%BA%BA%E3%80%8D%E3%81%AF%E4%BD%95%E3%82%92%E3%82%84%E3%81%A3%E3%81%A6%E3%81%84%E3%82%8B%E3%81%AE%E3%81%8B%EF%BC%9F-%EF%BC%92%EF%BC%91%E4%B8%96%E7%B4%80%E7%89%88-%E7%9F%A5%E7%9A%84%E6%9C%AA%E6%9D%A5%E5%AD%A6%E5%85%A5%E9%96%80-%E5%8E%9F%E7%94%B0%E7%BF%94%E5%A4%AA-ebook/dp/B01HWOQVNG
p409
(i__main__
ScrapingData
(dp410
g4
S''
sg5
S''
sg6
S''
sg7
g409
sg9
I0
sg10
(lp411
sg12
I0
sg13
S''
sg14
g409
sbtp412
a(Vhttps://www.amazon.co.jp/%E3%81%93%E3%81%AE%E7%B4%A0%E6%99%B4%E3%82%89%E3%81%97%E3%81%84%E4%B8%96%E7%95%8C%E3%81%AB%E7%A5%9D%E7%A6%8F%E3%82%92%EF%BC%81-%EF%BC%99-%E7%B4%85%E3%81%AE%E5%AE%BF%E5%91%BD-%E3%80%90%E9%9B%BB%E5%AD%90%E7%89%B9%E5%88%A5%E7%89%88%E3%80%91-%E3%81%93%E3%81%AE%E7%B4%A0%E6%99%B4%E3%82%89%E3%81%97%E3%81%84%E4%B8%96%E7%95%8C%E3%81%AB%E7%A5%9D%E7%A6%8F%E3%82%92%EF%BC%81-%E8%A7%92%E5%B7%9D%E3%82%B9%E3%83%8B%E3%83%BC%E3%82%AB%E3%83%BC%E6%96%87%E5%BA%AB-%E6%9A%81-%E3%81%AA%E3%81%A4%E3%82%81-ebook/dp/B01HPFWRPI
p413
(i__main__
ScrapingData
(dp414
g4
S''
sg5
S''
sg6
S''
sg7
g413
sg9
I0
sg10
(lp415
sg12
I0
sg13
S''
sg14
g413
sbtp416
a(Vhttps://www.amazon.co.jp/%E6%9C%AC%E5%A5%BD%E3%81%8D%E3%81%AE%E4%B8%8B%E5%89%8B%E4%B8%8A%EF%BD%9E%E5%8F%B8%E6%9B%B8%E3%81%AB%E3%81%AA%E3%82%8B%E3%81%9F%E3%82%81%E3%81%AB%E3%81%AF%E6%89%8B%E6%AE%B5%E3%82%92%E9%81%B8%E3%82%93%E3%81%A7%E3%81%84%E3%82%89%E3%82%8C%E3%81%BE%E3%81%9B%E3%82%93%EF%BD%9E-%E7%AC%AC%E4%BA%8C%E9%83%A8%E3%80%8C%E7%A5%9E%E6%AE%BF%E3%81%AE%E5%B7%AB%E5%A5%B3%E8%A6%8B%E7%BF%92%E3%81%84IV%E3%80%8D-%E9%A6%99%E6%9C%88%E7%BE%8E%E5%A4%9C-ebook/dp/B01HRNC7JO
p417
(i__main__
ScrapingData
(dp418
g4
S''
sg5
S''
sg6
S''
sg7
g417
sg9
I0
sg10
(lp419
sg12
I0
sg13
S''
sg14
g417
sbtp420
a(Vhttps://www.amazon.co.jp/%E3%83%80%E3%83%B3%E3%82%B8%E3%83%A7%E3%83%B3%E3%81%AB%E5%87%BA%E4%BC%9A%E3%81%84%E3%82%92%E6%B1%82%E3%82%81%E3%82%8B%E3%81%AE%E3%81%AF%E9%96%93%E9%81%95%E3%81%A3%E3%81%A6%E3%81%84%E3%82%8B%E3%81%A0%E3%82%8D%E3%81%86%E3%81%8B%E5%A4%96%E4%BC%9D-%E3%82%BD%E3%83%BC%E3%83%89%E3%83%BB%E3%82%AA%E3%83%A9%E3%83%88%E3%83%AA%E3%82%A2%EF%BC%96-GA%E6%96%87%E5%BA%AB-%E5%A4%A7%E6%A3%AE-%E8%97%A4%E3%83%8E-ebook/dp/B01GIXDR20
p421
(i__main__
ScrapingData
(dp422
g4
S''
sg5
S''
sg6
S''
sg7
g421
sg9
I0
sg10
(lp423
sg12
I0
sg13
S''
sg14
g421
sbtp424
a(Vhttps://www.amazon.co.jp/%E5%AB%8C%E3%82%8F%E3%82%8C%E3%82%8B%E5%8B%87%E6%B0%97-%E5%B2%B8%E8%A6%8B-%E4%B8%80%E9%83%8E-ebook/dp/B00H7RACY8
p425
(i__main__
ScrapingData
(dp426
g4
S''
sg5
S''
sg6
S''
sg7
g425
sg9
I0
sg10
(lp427
sg12
I0
sg13
S''
sg14
g425
sbtp428
a(Vhttps://www.amazon.co.jp/%E6%84%9B%E8%94%B5%E7%89%88-%E8%AA%95%E7%94%9F%E6%97%A5%E5%A4%A7%E5%85%A8-%E3%82%B5%E3%83%83%E3%83%95%E3%82%A3%E3%83%BB%E3%82%AF%E3%83%AD%E3%83%95%E3%82%A9%E3%83%BC%E3%83%89-ebook/dp/B00AO2W7CS
p429
(i__main__
ScrapingData
(dp430
g4
S''
sg5
S''
sg6
S''
sg7
g429
sg9
I0
sg10
(lp431
sg12
I0
sg13
S''
sg14
g429
sbtp432
a(Vhttps://www.amazon.co.jp/%E3%80%8C%E7%B6%9A%E3%81%91%E3%82%8B%E3%80%8D%E7%BF%92%E6%85%A3-%E5%8F%A4%E5%B7%9D%E6%AD%A6%E5%A3%AB-ebook/dp/B014D0E0HQ
p433
(i__main__
ScrapingData
(dp434
g4
S''
sg5
S''
sg6
S''
sg7
g433
sg9
I0
sg10
(lp435
sg12
I0
sg13
S''
sg14
g433
sbtp436
a(Vhttps://www.amazon.co.jp/%E4%BA%BA%E9%A1%9E%E6%9C%80%E5%BC%B7%E3%81%AE%E3%80%8C%E7%B3%96%E8%B3%AA%E5%88%B6%E9%99%90%E3%80%8D%E8%AB%96-%E3%82%B1%E3%83%88%E3%83%B3%E4%BD%93%E3%82%92%E5%91%B3%E6%96%B9%E3%81%AB%E3%81%97%E3%81%A6%E7%97%A9%E3%81%9B%E3%82%8B%E3%80%81%E5%81%A5%E5%BA%B7%E3%81%AB%E3%81%AA%E3%82%8B-SB%E6%96%B0%E6%9B%B8-%E6%B1%9F%E9%83%A8-%E5%BA%B7%E4%BA%8C-ebook/dp/B01DBQQ84G
p437
(i__main__
ScrapingData
(dp438
g4
S''
sg5
S''
sg6
S''
sg7
g437
sg9
I0
sg10
(lp439
sg12
I0
sg13
S''
sg14
g437
sbtp440
a(Vhttps://www.amazon.co.jp/%E3%82%A6%E3%82%A7%E3%83%96%E3%83%8B%E3%83%A5%E3%83%BC%E3%82%B9%E4%B8%80%E5%84%84%E7%B7%8F%E3%83%90%E3%82%AB%E6%99%82%E4%BB%A3-%E5%8F%8C%E8%91%89%E6%96%B0%E6%9B%B8-%E4%B8%89%E7%94%B0%E3%82%BE%E3%83%BC%E3%83%9E-ebook/dp/B014KEABM8
p441
(i__main__
ScrapingData
(dp442
g4
S''
sg5
S''
sg6
S''
sg7
g441
sg9
I0
sg10
(lp443
sg12
I0
sg13
S''
sg14
g441
sbtp444
a(Vhttps://www.amazon.co.jp/%E3%81%99%E3%81%B9%E3%81%A6%E3%81%AE%E7%96%B2%E5%8A%B4%E3%81%AF%E8%84%B3%E3%81%8C%E5%8E%9F%E5%9B%A0-%E9%9B%86%E8%8B%B1%E7%A4%BE%E6%96%B0%E6%9B%B8-%E6%A2%B6%E6%9C%AC%E4%BF%AE%E8%BA%AB-ebook/dp/B01GTDVII4
p445
(i__main__
ScrapingData
(dp446
g4
S''
sg5
S''
sg6
S''
sg7
g445
sg9
I0
sg10
(lp447
sg12
I0
sg13
S''
sg14
g445
sbtp448
a(Vhttps://www.amazon.co.jp/gp/bestsellers/digital-text/2275256051_p0_h
p449
(i__main__
ScrapingData
(dp450
g4
S''
sg5
S''
sg6
S''
sg7
g449
sg9
I0
sg10
(lp451
sg12
I0
sg13
S''
sg14
g449
sbtp452
a(Vhttps://www.amazon.co.jp/%E7%B3%96%E8%B3%AA%E5%88%B6%E9%99%90%E3%81%AE%E7%9C%9F%E5%AE%9F-%E6%97%A5%E6%9C%AC%E4%BA%BA%E3%82%92%E6%95%91%E3%81%86%E9%9D%A9%E5%91%BD%E7%9A%84%E9%A3%9F%E4%BA%8B%E6%B3%95%E3%83%AD%E3%82%AB%E3%83%9C%E3%81%AE%E3%81%99%E3%81%B9%E3%81%A6-%E5%B9%BB%E5%86%AC%E8%88%8E%E6%96%B0%E6%9B%B8-%E5%B1%B1%E7%94%B0%E6%82%9F-ebook/dp/B018K0HJSM
p453
(i__main__
ScrapingData
(dp454
g4
S''
sg5
S''
sg6
S''
sg7
g453
sg9
I0
sg10
(lp455
sg12
I0
sg13
S''
sg14
g453
sbtp456
a(Vhttps://www.amazon.co.jp/%E5%B1%B1%E7%94%B0-%E6%82%9F/e/B00J25WB10
p457
(i__main__
ScrapingData
(dp458
g4
S''
sg5
S''
sg6
S''
sg7
g457
sg9
I0
sg10
(lp459
sg12
I0
sg13
S''
sg14
g457
sbtp460
a(Vhttps://www.amazon.co.jp/%E6%B0%B4%E6%9C%A8-%E3%81%97%E3%81%92%E3%82%8B/e/B001I7RJ7G
p461
(i__main__
ScrapingData
(dp462
g4
S''
sg5
S''
sg6
S''
sg7
g461
sg9
I0
sg10
(lp463
sg12
I0
sg13
S''
sg14
g461
sbtp464
a(Vhttps://www.amazon.co.jp/%E6%96%87%E8%97%9D%E6%98%A5%E7%A7%8BSPECIAL-2015%E5%B9%B4%E5%A4%8F%E5%8F%B7-%E9%9B%91%E8%AA%8C-%E6%96%87%E8%97%9D%E6%98%A5%E7%A7%8B-ebook/dp/B00Y033YOC
p465
(i__main__
ScrapingData
(dp466
g4
S''
sg5
S''
sg6
S''
sg7
g465
sg9
I0
sg10
(lp467
sg12
I0
sg13
S''
sg14
g465
sbtp468
a(Vhttps://www.amazon.co.jp/%E8%A8%80%E3%81%A3%E3%81%A6%E3%81%AF%E3%81%84%E3%81%91%E3%81%AA%E3%81%84%E2%80%95%E6%AE%8B%E9%85%B7%E3%81%99%E3%81%8E%E3%82%8B%E7%9C%9F%E5%AE%9F%E2%80%95%EF%BC%88%E6%96%B0%E6%BD%AE%E6%96%B0%E6%9B%B8%EF%BC%89-%E6%A9%98-%E7%8E%B2-ebook/dp/B01E6JQBD0
p469
(i__main__
ScrapingData
(dp470
g4
S''
sg5
S''
sg6
S''
sg7
g469
sg9
I0
sg10
(lp471
sg12
I0
sg13
S''
sg14
g469
sbtp472
a(Vhttps://www.amazon.co.jp/%E6%A9%98-%E7%8E%B2/e/B003UWUGWC
p473
(i__main__
ScrapingData
(dp474
g4
S''
sg5
S''
sg6
S''
sg7
g473
sg9
I0
sg10
(lp475
sg12
I0
sg13
S''
sg14
g473
sbtp476
a(Vhttps://www.amazon.co.jp/%E6%B1%9F%E9%83%A8-%E5%BA%B7%E4%BA%8C/e/B003UWDCSC
p477
(i__main__
ScrapingData
(dp478
g4
S''
sg5
S''
sg6
S''
sg7
g477
sg9
I0
sg10
(lp479
sg12
I0
sg13
S''
sg14
g477
sbtp480
a(Vhttps://www.amazon.co.jp/%E6%B1%BA%E5%AE%9A%E7%89%88-%E6%A0%84%E9%A4%8A%E5%AD%A6%E3%81%AE%E5%9F%BA%E6%9C%AC%E3%81%8C%E3%81%BE%E3%82%8B%E3%81%94%E3%81%A8%E3%82%8F%E3%81%8B%E3%82%8B%E4%BA%8B%E5%85%B8-%E8%B6%B3%E7%AB%8B%E9%A6%99%E4%BB%A3%E5%AD%90-ebook/dp/B00XBH6CM4
p481
(i__main__
ScrapingData
(dp482
g4
S''
sg5
S''
sg6
S''
sg7
g481
sg9
I0
sg10
(lp483
sg12
I0
sg13
S''
sg14
g481
sbtp484
a(Vhttps://www.amazon.co.jp/%E3%83%81%E3%82%A2%E7%94%B7%E5%AD%90%EF%BC%81%EF%BC%81-%E9%9B%86%E8%8B%B1%E7%A4%BE%E6%96%87%E5%BA%AB-%E6%9C%9D%E4%BA%95%E3%83%AA%E3%83%A7%E3%82%A6-ebook/dp/B00CP2Z3HG
p485
(i__main__
ScrapingData
(dp486
g4
S''
sg5
S''
sg6
S''
sg7
g485
sg9
I0
sg10
(lp487
sg12
I0
sg13
S''
sg14
g485
sbtp488
a(Vhttps://www.amazon.co.jp/%E6%9C%9D%E4%BA%95-%E3%83%AA%E3%83%A7%E3%82%A6/e/B004LW8CDK
p489
(i__main__
ScrapingData
(dp490
g4
S''
sg5
S''
sg6
S''
sg7
g489
sg9
I0
sg10
(lp491
sg12
I0
sg13
S''
sg14
g489
sbtp492
a(Vhttps://www.amazon.co.jp/%E4%BC%9A%E8%A9%B1%E3%81%AB%E5%9B%B0%E3%82%89%E3%81%AA%E3%81%8F%E3%81%AA%E3%82%8B%EF%BC%81%E4%BC%9A%E8%A9%B1%E8%A1%93%E5%A4%A7%E5%85%A8-4%E5%86%8A%E3%82%BB%E3%83%83%E3%83%88-SMART-BOOK-%E8%83%BD%E5%8A%9B%E9%96%8B%E7%99%BA%E7%A0%94%E7%A9%B6%E4%BC%9A-ebook/dp/B01HBGGYD2
p493
(i__main__
ScrapingData
(dp494
g4
S''
sg5
S''
sg6
S''
sg7
g493
sg9
I0
sg10
(lp495
sg12
I0
sg13
S''
sg14
g493
sbtp496
a(Vhttps://www.amazon.co.jp/forum
p497
(i__main__
ScrapingData
(dp498
g4
S''
sg5
S''
sg6
S''
sg7
Vhttps://www.amazon.co.jp/forum/kindle?_encoding=UTF8&cdForum=Fx1QMZAIPKWB6YF&cdThread=Tx2IE10K2SMPGKR
p499
sg9
I0
sg10
(lp500
sg12
I0
sg13
S''
sg14
g497
sbtp501
a(Vhttps://www.amazon.co.jp/Amazon-W87CUN-Fire-TV-Stick/dp/B00ZVNYLS8#customerReviews
p502
(i__main__
ScrapingData
(dp503
g4
S''
sg5
S''
sg6
S''
sg7
g502
sg9
I0
sg10
(lp504
sg12
I0
sg13
S''
sg14
g502
sbtp505
a(Vhttps://www.amazon.co.jp/Amazon-SV98LN-Fire-%E3%82%BF%E3%83%96%E3%83%AC%E3%83%83%E3%83%88-8GB%E3%80%81%E3%83%96%E3%83%A9%E3%83%83%E3%82%AF/dp/B00Y3TMKKM#customerReviews
p506
(i__main__
ScrapingData
(dp507
g4
S''
sg5
S''
sg6
S''
sg7
g506
sg9
I0
sg10
(lp508
sg12
I0
sg13
S''
sg14
g506
sbtp509
a(Vhttps://www.amazon.co.jp/gp/product/features/glide.html/ref=gi_rw_sr_1_3_twi_kin_1?currencyCode=JPY&action=buy&asin=B01HNJLOR8&price=563.0&gi_csrf=gHHk04bY
p510
(i__main__
ScrapingData
(dp511
g4
S''
sg5
S''
sg6
S''
sg7
Vhttps://www.amazon.co.jp/gp/product/features/glide.html/ref=gi_rw_sr_1_3_twi_kin_1?currencyCode=JPY&action=buy&asin=B01HNJLOR8&price=563.0&gi_csrf=gHHk04bY/JU4hJQhAKM2X4EOCICF9dHZYHx9iOMAAAAJAAAAAFd+LTFyYXcAAAAA
p512
sg9
I0
sg10
(lp513
sg12
I0
sg13
S''
sg14
g510
sbtp514
a(Vhttps://www.amazon.co.jp/%E3%81%95%E3%81%B3%E3%81%97%E3%81%99%E3%81%8E%E3%81%A6%E3%83%AC%E3%82%BA%E9%A2%A8%E4%BF%97%E3%81%AB%E8%A1%8C%E3%81%8D%E3%81%BE%E3%81%97%E3%81%9F%E3%83%AC%E3%83%9D-%E6%B0%B8%E7%94%B0%E3%82%AB%E3%83%93-ebook/dp/B01HI6I4I8
p515
(i__main__
ScrapingData
(dp516
g4
S''
sg5
S''
sg6
S''
sg7
g515
sg9
I0
sg10
(lp517
sg12
I0
sg13
S''
sg14
g515
sbtp518
a(Vhttps://www.amazon.co.jp/%E3%81%95%E3%81%B3%E3%81%97%E3%81%99%E3%81%8E%E3%81%A6%E3%83%AC%E3%82%BA%E9%A2%A8%E4%BF%97%E3%81%AB%E8%A1%8C%E3%81%8D%E3%81%BE%E3%81%97%E3%81%9F%E3%83%AC%E3%83%9D-%E6%B0%B8%E7%94%B0%E3%82%AB%E3%83%93-ebook/dp/B01HI6I4I8#customerReviews
p519
(i__main__
ScrapingData
(dp520
g4
S''
sg5
S''
sg6
S''
sg7
g519
sg9
I0
sg10
(lp521
sg12
I0
sg13
S''
sg14
g519
sbtp522
a(Vhttps://www.amazon.co.jp/\u4e09\u6d66\u5efa\u592a\u90ce/e/B003UW85ZM
p523
(i__main__
ScrapingData
(dp524
g4
S''
sg5
S''
sg6
S''
sg7
Vhttps://www.amazon.co.jp/\u4e09\u6d66\u5efa\u592a\u90ce/e/B003UW85ZM/ref=lp_2250738051_ntt_srch_lnk_5?qid=1467886897&sr=1-5
p525
sg9
I0
sg10
(lp526
sg12
I0
sg13
S''
sg14
g523
sbtp527
a(Vhttps://www.amazon.co.jp/%E3%83%99%E3%83%AB%E3%82%BB%E3%83%AB%E3%82%AF-38-%E3%83%A4%E3%83%B3%E3%82%B0%E3%82%A2%E3%83%8B%E3%83%9E%E3%83%AB%E3%82%B3%E3%83%9F%E3%83%83%E3%82%AF%E3%82%B9-%E4%B8%89%E6%B5%A6%E5%BB%BA%E5%A4%AA%E9%83%8E-ebook/dp/B01GZH4AGQ#customerReviews
p528
(i__main__
ScrapingData
(dp529
g4
S''
sg5
S''
sg6
S''
sg7
g528
sg9
I0
sg10
(lp530
sg12
I0
sg13
S''
sg14
g528
sbtp531
a(Vhttps://www.amazon.co.jp/gp/product/features/glide.html/ref=gi_rw_sr_1_6_twi_kin_1?currencyCode=JPY&action=buy&asin=B01HHPWPJO&price=600.0&gi_csrf=gMjl+NHKW+5vz+7Le/I+OWJ1bsSt
p532
(i__main__
ScrapingData
(dp533
g4
S''
sg5
S''
sg6
S''
sg7
Vhttps://www.amazon.co.jp/gp/product/features/glide.html/ref=gi_rw_sr_1_6_twi_kin_1?currencyCode=JPY&action=buy&asin=B01HHPWPJO&price=600.0&gi_csrf=gMjl+NHKW+5vz+7Le/I+OWJ1bsSt/NX4r6bZxZYAAAAJAAAAAFd+LTFyYXcAAAAA
p534
sg9
I0
sg10
(lp535
sg12
I0
sg13
S''
sg14
g532
sbtp536
a(Vhttps://www.amazon.co.jp/%E9%AD%94%E7%8E%8B%E3%81%AE%E5%A7%8B%E3%82%81%E6%96%B9-COMIC-2-%E3%83%B4%E3%82%A1%E3%83%AB%E3%82%AD%E3%83%AA%E3%83%BC%E3%82%B3%E3%83%9F%E3%83%83%E3%82%AF%E3%82%B9-%E5%B0%8F%E5%AE%AE%E5%88%A9%E5%85%AC-ebook/dp/B01HHPWPJO#customerReviews
p537
(i__main__
ScrapingData
(dp538
g4
S''
sg5
S''
sg6
S''
sg7
g537
sg9
I0
sg10
(lp539
sg12
I0
sg13
S''
sg14
g537
sbtp540
a(Vhttps://www.amazon.co.jp/%E6%9D%B1%E4%BA%AC%E5%96%B0%E7%A8%AE%E3%83%88%E3%83%BC%E3%82%AD%E3%83%A7%E3%83%BC%E3%82%B0%E3%83%BC%E3%83%AB-re-7-%E3%83%A4%E3%83%B3%E3%82%B0%E3%82%B8%E3%83%A3%E3%83%B3%E3%83%97%E3%82%B3%E3%83%9F%E3%83%83%E3%82%AF%E3%82%B9DIGITAL-%E7%9F%B3%E7%94%B0%E3%82%B9%E3%82%A4-ebook/dp/B01G1DUZX6
p541
(i__main__
ScrapingData
(dp542
g4
S''
sg5
S''
sg6
S''
sg7
g541
sg9
I0
sg10
(lp543
sg12
I0
sg13
S''
sg14
g541
sbtp544
a(Vhttps://www.amazon.co.jp/%E6%9D%B1%E4%BA%AC%E5%96%B0%E7%A8%AE%E3%83%88%E3%83%BC%E3%82%AD%E3%83%A7%E3%83%BC%E3%82%B0%E3%83%BC%E3%83%AB-re-7-%E3%83%A4%E3%83%B3%E3%82%B0%E3%82%B8%E3%83%A3%E3%83%B3%E3%83%97%E3%82%B3%E3%83%9F%E3%83%83%E3%82%AF%E3%82%B9DIGITAL-%E7%9F%B3%E7%94%B0%E3%82%B9%E3%82%A4-ebook/dp/B01G1DUZX6#customerReviews
p545
(i__main__
ScrapingData
(dp546
g4
S''
sg5
S''
sg6
S''
sg7
g545
sg9
I0
sg10
(lp547
sg12
I0
sg13
S''
sg14
g545
sbtp548
a(Vhttps://www.amazon.co.jp/%E6%9A%97%E6%AE%BA%E6%95%99%E5%AE%A4-21-%E3%82%B8%E3%83%A3%E3%83%B3%E3%83%97%E3%82%B3%E3%83%9F%E3%83%83%E3%82%AF%E3%82%B9DIGITAL-%E6%9D%BE%E4%BA%95%E5%84%AA%E5%BE%81-ebook/dp/B01G1DV3FK
p549
(i__main__
ScrapingData
(dp550
g4
S''
sg5
S''
sg6
S''
sg7
g549
sg9
I0
sg10
(lp551
sg12
I0
sg13
S''
sg14
g549
sbtp552
a(Vhttps://www.amazon.co.jp/%E6%9A%97%E6%AE%BA%E6%95%99%E5%AE%A4-21-%E3%82%B8%E3%83%A3%E3%83%B3%E3%83%97%E3%82%B3%E3%83%9F%E3%83%83%E3%82%AF%E3%82%B9DIGITAL-%E6%9D%BE%E4%BA%95%E5%84%AA%E5%BE%81-ebook/dp/B01G1DV3FK#customerReviews
p553
(i__main__
ScrapingData
(dp554
g4
S''
sg5
S''
sg6
S''
sg7
g553
sg9
I0
sg10
(lp555
sg12
I0
sg13
S''
sg14
g553
sbtp556
a(Vhttps://www.amazon.co.jp/%E7%A5%9E%E3%80%85%E3%81%AE%E6%8C%87%E7%B4%8B%E3%80%80%E4%B8%8A-%E7%A5%9E%E3%80%85%E3%81%AE%E6%8C%87%E7%B4%8B-%E8%A7%92%E5%B7%9D%E6%96%87%E5%BA%AB-%E3%82%B0%E3%83%A9%E3%83%8F%E3%83%A0%E3%83%BB%E3%83%8F%E3%83%B3%E3%82%B3%E3%83%83%E3%82%AF-ebook/dp/B01GT3VA9G
p557
(i__main__
ScrapingData
(dp558
g4
S''
sg5
S''
sg6
S''
sg7
g557
sg9
I0
sg10
(lp559
sg12
I0
sg13
S''
sg14
g557
sbtp560
a(Vhttps://www.amazon.co.jp/%E7%A5%9E%E3%80%85%E3%81%AE%E6%8C%87%E7%B4%8B%E3%80%80%E4%B8%8A-%E7%A5%9E%E3%80%85%E3%81%AE%E6%8C%87%E7%B4%8B-%E8%A7%92%E5%B7%9D%E6%96%87%E5%BA%AB-%E3%82%B0%E3%83%A9%E3%83%8F%E3%83%A0%E3%83%BB%E3%83%8F%E3%83%B3%E3%82%B3%E3%83%83%E3%82%AF-ebook/dp/B01GT3VA9G#customerReviews
p561
(i__main__
ScrapingData
(dp562
g4
S''
sg5
S''
sg6
S''
sg7
g561
sg9
I0
sg10
(lp563
sg12
I0
sg13
S''
sg14
g561
sbtp564
a(Vhttps://www.amazon.co.jp/HUNTER%C3%97HUNTER-%E3%83%A2%E3%83%8E%E3%82%AF%E3%83%AD%E7%89%88-33-%E3%82%B8%E3%83%A3%E3%83%B3%E3%83%97%E3%82%B3%E3%83%9F%E3%83%83%E3%82%AF%E3%82%B9DIGITAL-%E5%86%A8%E6%A8%AB%E7%BE%A9%E5%8D%9A-ebook/dp/B01EJ7AICY
p565
(i__main__
ScrapingData
(dp566
g4
S''
sg5
S''
sg6
S''
sg7
g565
sg9
I0
sg10
(lp567
sg12
I0
sg13
S''
sg14
g565
sbtp568
a(Vhttps://www.amazon.co.jp/\u51a8\u6a2b\u7fa9\u535a/e/B00LXFJS3Q
p569
(i__main__
ScrapingData
(dp570
g4
S''
sg5
S''
sg6
S''
sg7
Vhttps://www.amazon.co.jp/\u51a8\u6a2b\u7fa9\u535a/e/B00LXFJS3Q/ref=lp_2250738051_ntt_srch_lnk_10?qid=1467886897&sr=1-10
p571
sg9
I0
sg10
(lp572
sg12
I0
sg13
S''
sg14
g569
sbtp573
a(Vhttps://www.amazon.co.jp/HUNTER%C3%97HUNTER-%E3%83%A2%E3%83%8E%E3%82%AF%E3%83%AD%E7%89%88-33-%E3%82%B8%E3%83%A3%E3%83%B3%E3%83%97%E3%82%B3%E3%83%9F%E3%83%83%E3%82%AF%E3%82%B9DIGITAL-%E5%86%A8%E6%A8%AB%E7%BE%A9%E5%8D%9A-ebook/dp/B01EJ7AICY#customerReviews
p574
(i__main__
ScrapingData
(dp575
g4
S''
sg5
S''
sg6
S''
sg7
g574
sg9
I0
sg10
(lp576
sg12
I0
sg13
S''
sg14
g574
sbtp577
a(Vhttps://www.amazon.co.jp/%E3%81%93%E3%81%AE%E7%B4%A0%E6%99%B4%E3%82%89%E3%81%97%E3%81%84%E4%B8%96%E7%95%8C%E3%81%AB%E7%A5%9D%E7%A6%8F%E3%82%92%EF%BC%81%E3%80%80%EF%BC%99%E3%80%80%E7%B4%85%E3%81%AE%E5%AE%BF%E5%91%BD%E3%80%80%E3%80%90%E9%9B%BB%E5%AD%90%E7%89%B9%E5%88%A5%E7%89%88%E3%80%91-%E3%81%93%E3%81%AE%E7%B4%A0%E6%99%B4%E3%82%89%E3%81%97%E3%81%84%E4%B8%96%E7%95%8C%E3%81%AB%E7%A5%9D%E7%A6%8F%E3%82%92%EF%BC%81-%E8%A7%92%E5%B7%9D%E3%82%B9%E3%83%8B%E3%83%BC%E3%82%AB%E3%83%BC%E6%96%87%E5%BA%AB-%E6%9A%81-%E3%81%AA%E3%81%A4%E3%82%81-ebook/dp/B01HPFWRPI
p578
(i__main__
ScrapingData
(dp579
g4
S''
sg5
S''
sg6
S''
sg7
g578
sg9
I0
sg10
(lp580
sg12
I0
sg13
S''
sg14
g578
sbtp581
a(Vhttps://www.amazon.co.jp/%E3%81%93%E3%81%AE%E7%B4%A0%E6%99%B4%E3%82%89%E3%81%97%E3%81%84%E4%B8%96%E7%95%8C%E3%81%AB%E7%A5%9D%E7%A6%8F%E3%82%92%EF%BC%81%E3%80%80%EF%BC%99%E3%80%80%E7%B4%85%E3%81%AE%E5%AE%BF%E5%91%BD%E3%80%80%E3%80%90%E9%9B%BB%E5%AD%90%E7%89%B9%E5%88%A5%E7%89%88%E3%80%91-%E3%81%93%E3%81%AE%E7%B4%A0%E6%99%B4%E3%82%89%E3%81%97%E3%81%84%E4%B8%96%E7%95%8C%E3%81%AB%E7%A5%9D%E7%A6%8F%E3%82%92%EF%BC%81-%E8%A7%92%E5%B7%9D%E3%82%B9%E3%83%8B%E3%83%BC%E3%82%AB%E3%83%BC%E6%96%87%E5%BA%AB-%E6%9A%81-%E3%81%AA%E3%81%A4%E3%82%81-ebook/dp/B01HPFWRPI#customerReviews
p582
(i__main__
ScrapingData
(dp583
g4
S''
sg5
S''
sg6
S''
sg7
g582
sg9
I0
sg10
(lp584
sg12
I0
sg13
S''
sg14
g582
sbtp585
a(Vhttps://www.amazon.co.jp/%E7%A5%9E%E3%80%85%E3%81%AE%E6%8C%87%E7%B4%8B%E3%80%80%E4%B8%8B-%E7%A5%9E%E3%80%85%E3%81%AE%E6%8C%87%E7%B4%8B-%E8%A7%92%E5%B7%9D%E6%96%87%E5%BA%AB-%E3%82%B0%E3%83%A9%E3%83%8F%E3%83%A0%E3%83%BB%E3%83%8F%E3%83%B3%E3%82%B3%E3%83%83%E3%82%AF-ebook/dp/B01GT3VA96
p586
(i__main__
ScrapingData
(dp587
g4
S''
sg5
S''
sg6
S''
sg7
g586
sg9
I0
sg10
(lp588
sg12
I0
sg13
S''
sg14
g586
sbtp589
a(Vhttps://www.amazon.co.jp/%E7%A5%9E%E3%80%85%E3%81%AE%E6%8C%87%E7%B4%8B%E3%80%80%E4%B8%8B-%E7%A5%9E%E3%80%85%E3%81%AE%E6%8C%87%E7%B4%8B-%E8%A7%92%E5%B7%9D%E6%96%87%E5%BA%AB-%E3%82%B0%E3%83%A9%E3%83%8F%E3%83%A0%E3%83%BB%E3%83%8F%E3%83%B3%E3%82%B3%E3%83%83%E3%82%AF-ebook/dp/B01GT3VA96#customerReviews
p590
(i__main__
ScrapingData
(dp591
g4
S''
sg5
S''
sg6
S''
sg7
g590
sg9
I0
sg10
(lp592
sg12
I0
sg13
S''
sg14
g590
sbtp593
a(Vhttps://www.amazon.co.jp/%E9%A3%9F%E6%88%9F%E3%81%AE%E3%82%BD%E3%83%BC%E3%83%9E-19-%E3%82%B8%E3%83%A3%E3%83%B3%E3%83%97%E3%82%B3%E3%83%9F%E3%83%83%E3%82%AF%E3%82%B9DIGITAL-%E9%99%84%E7%94%B0%E7%A5%90%E6%96%97-ebook/dp/B01G1DV29W
p594
(i__main__
ScrapingData
(dp595
g4
S''
sg5
S''
sg6
S''
sg7
g594
sg9
I0
sg10
(lp596
sg12
I0
sg13
S''
sg14
g594
sbtp597
a(Vhttps://www.amazon.co.jp/gp/product/features/glide.html/ref=gi_rw_sr_1_13_twi_kin_1?currencyCode=JPY&action=buy&asin=B01G1DV29W&price=400.0&gi_csrf=gFoFGTZiAXVqKF
p598
(i__main__
ScrapingData
(dp599
g4
S''
sg5
S''
sg6
S''
sg7
Vhttps://www.amazon.co.jp/gp/product/features/glide.html/ref=gi_rw_sr_1_13_twi_kin_1?currencyCode=JPY&action=buy&asin=B01G1DV29W&price=400.0&gi_csrf=gFoFGTZiAXVqKF/OydfQL15qIEu66dLftv5ihmMAAAAJAAAAAFd+LTJyYXcAAAAA
p600
sg9
I0
sg10
(lp601
sg12
I0
sg13
S''
sg14
g598
sbtp602
a(Vhttps://www.amazon.co.jp/%E9%A3%9F%E6%88%9F%E3%81%AE%E3%82%BD%E3%83%BC%E3%83%9E-19-%E3%82%B8%E3%83%A3%E3%83%B3%E3%83%97%E3%82%B3%E3%83%9F%E3%83%83%E3%82%AF%E3%82%B9DIGITAL-%E9%99%84%E7%94%B0%E7%A5%90%E6%96%97-ebook/dp/B01G1DV29W#customerReviews
p603
(i__main__
ScrapingData
(dp604
g4
S''
sg5
S''
sg6
S''
sg7
g603
sg9
I0
sg10
(lp605
sg12
I0
sg13
S''
sg14
g603
sbtp606
a(Vhttps://www.amazon.co.jp/%E6%96%87%E8%97%9D%E6%98%A5%E7%A7%8BSPECIAL-2015%E5%B9%B4%E5%A4%8F%E5%8F%B7-%E9%9B%91%E8%AA%8C-%E6%96%87%E8%97%9D%E6%98%A5%E7%A7%8B-ebook/dp/B00Y033YOC#customerReviews
p607
(i__main__
ScrapingData
(dp608
g4
S''
sg5
S''
sg6
S''
sg7
g607
sg9
I0
sg10
(lp609
sg12
I0
sg13
S''
sg14
g607
sbtp610
a(Vhttps://www.amazon.co.jp/\u6a58-\u73b2/e/B003UWUGWC
p611
(i__main__
ScrapingData
(dp612
g4
S''
sg5
S''
sg6
S''
sg7
Vhttps://www.amazon.co.jp/\u6a58-\u73b2/e/B003UWUGWC/ref=lp_2250738051_ntt_srch_lnk_15?qid=1467886897&sr=1-15
p613
sg9
I0
sg10
(lp614
sg12
I0
sg13
S''
sg14
g611
sbtp615
a(Vhttps://www.amazon.co.jp/%E8%A8%80%E3%81%A3%E3%81%A6%E3%81%AF%E3%81%84%E3%81%91%E3%81%AA%E3%81%84%E2%80%95%E6%AE%8B%E9%85%B7%E3%81%99%E3%81%8E%E3%82%8B%E7%9C%9F%E5%AE%9F%E2%80%95%EF%BC%88%E6%96%B0%E6%BD%AE%E6%96%B0%E6%9B%B8%EF%BC%89-%E6%A9%98-%E7%8E%B2-ebook/dp/B01E6JQBD0#customerReviews
p616
(i__main__
ScrapingData
(dp617
g4
S''
sg5
S''
sg6
S''
sg7
g616
sg9
I0
sg10
(lp618
sg12
I0
sg13
S''
sg14
g616
sbtp619
a(Vhttps://www.amazon.co.jp/Amazon-DP75SDI-Kindle-Paperwhite-Wi-Fi%E3%80%81%E3%83%96%E3%83%A9%E3%83%83%E3%82%AF/dp/B00QJDOM6U
p620
(i__main__
ScrapingData
(dp621
g4
S''
sg5
S''
sg6
S''
sg7
g620
sg9
I0
sg10
(lp622
sg12
I0
sg13
S''
sg14
g620
sbtp623
a(Vhttps://www.amazon.co.jp/Amazon-DP75SDI-Kindle-Paperwhite-Wi-Fi%E3%80%81%E3%83%96%E3%83%A9%E3%83%83%E3%82%AF/dp/B00QJDOM6U#customerReviews
p624
(i__main__
ScrapingData
(dp625
g4
S''
sg5
S''
sg6
S''
sg7
g624
sg9
I0
sg10
(lp626
sg12
I0
sg13
S''
sg14
g624
sbtp627
a(Vhttps://www.amazon.co.jp/Kindle%E3%82%B9%E3%83%88%E3%82%A2
p628
(i__main__
ScrapingData
(dp629
g4
S''
sg5
S''
sg6
S''
sg7
Vhttps://www.amazon.co.jp/Kindle%E3%82%B9%E3%83%88%E3%82%A2/s?ie=UTF8&page=2&rh=n%3A2250738051
p630
sg9
I0
sg10
(lp631
sg12
I0
sg13
S''
sg14
g628
sbtp632
a(Vhttps://www.amazon.co.jp/gp/digital/fiona/manage
p633
(i__main__
ScrapingData
(dp634
g4
S''
sg5
S''
sg6
S''
sg7
g633
sg9
I0
sg10
(lp635
sg12
I0
sg13
S''
sg14
g633
sbtp636
a(Vhttps://www.amazon.co.jp/gp/help/customer/display.html
p637
(i__main__
ScrapingData
(dp638
g4
S''
sg5
S''
sg6
S''
sg7
Vhttps://www.amazon.co.jp/gp/help/customer/display.html/?ie=UTF8&nodeId=200698610
p639
sg9
I0
sg10
(lp640
sg12
I0
sg13
S''
sg14
g637
sbtp641
a(Vhttps://www.amazon.co.jp/%E6%96%87%E5%AD%A6%E3%83%BB%E5%B0%8F%E8%AA%AC%E3%83%BB%E8%A9%95%E8%AB%96-Kindle-%E3%82%AD%E3%83%B3%E3%83%89%E3%83%AB-%E9%9B%BB%E5%AD%90%E6%9B%B8%E7%B1%8D
p642
(i__main__
ScrapingData
(dp643
g4
S''
sg5
S''
sg6
S''
sg7
Vhttps://www.amazon.co.jp/%E6%96%87%E5%AD%A6%E3%83%BB%E5%B0%8F%E8%AA%AC%E3%83%BB%E8%A9%95%E8%AB%96-Kindle-%E3%82%AD%E3%83%B3%E3%83%89%E3%83%AB-%E9%9B%BB%E5%AD%90%E6%9B%B8%E7%B1%8D/b?ie=UTF8&node=2292699051
p644
sg9
I0
sg10
(lp645
sg12
I0
sg13
S''
sg14
g642
sbtp646
a(Vhttps://www.amazon.co.jp/%E4%BA%BA%E6%96%87%E3%83%BB%E6%80%9D%E6%83%B3-Kindle-%E3%82%AD%E3%83%B3%E3%83%89%E3%83%AB-%E9%9B%BB%E5%AD%90%E6%9B%B8%E7%B1%8D
p647
(i__main__
ScrapingData
(dp648
g4
S''
sg5
S''
sg6
S''
sg7
Vhttps://www.amazon.co.jp/%E4%BA%BA%E6%96%87%E3%83%BB%E6%80%9D%E6%83%B3-Kindle-%E3%82%AD%E3%83%B3%E3%83%89%E3%83%AB-%E9%9B%BB%E5%AD%90%E6%9B%B8%E7%B1%8D/b?ie=UTF8&node=2292095051
p649
sg9
I0
sg10
(lp650
sg12
I0
sg13
S''
sg14
g647
sbtp651
a(Vhttps://www.amazon.co.jp/%E7%A4%BE%E4%BC%9A%E3%83%BB%E6%94%BF%E6%B2%BB-Kindle-%E3%82%AD%E3%83%B3%E3%83%89%E3%83%AB-%E9%9B%BB%E5%AD%90%E6%9B%B8%E7%B1%8D
p652
(i__main__
ScrapingData
(dp653
g4
S''
sg5
S''
sg6
S''
sg7
Vhttps://www.amazon.co.jp/%E7%A4%BE%E4%BC%9A%E3%83%BB%E6%94%BF%E6%B2%BB-Kindle-%E3%82%AD%E3%83%B3%E3%83%89%E3%83%AB-%E9%9B%BB%E5%AD%90%E6%9B%B8%E7%B1%8D/b?ie=UTF8&node=2293149051
p654
sg9
I0
sg10
(lp655
sg12
I0
sg13
S''
sg14
g652
sbtp656
a(Vhttps://www.amazon.co.jp/%E3%83%8E%E3%83%B3%E3%83%95%E3%82%A3%E3%82%AF%E3%82%B7%E3%83%A7%E3%83%B3-Kindle-%E3%82%AD%E3%83%B3%E3%83%89%E3%83%AB-%E9%9B%BB%E5%AD%90%E6%9B%B8%E7%B1%8D
p657
(i__main__
ScrapingData
(dp658
g4
S''
sg5
S''
sg6
S''
sg7
Vhttps://www.amazon.co.jp/%E3%83%8E%E3%83%B3%E3%83%95%E3%82%A3%E3%82%AF%E3%82%B7%E3%83%A7%E3%83%B3-Kindle-%E3%82%AD%E3%83%B3%E3%83%89%E3%83%AB-%E9%9B%BB%E5%AD%90%E6%9B%B8%E7%B1%8D/b?ie=UTF8&node=2291791051
p659
sg9
I0
sg10
(lp660
sg12
I0
sg13
S''
sg14
g657
sbtp661
a(Vhttps://www.amazon.co.jp/%E6%AD%B4%E5%8F%B2%E3%83%BB%E5%9C%B0%E7%90%86-Kindle-%E3%82%AD%E3%83%B3%E3%83%89%E3%83%AB-%E9%9B%BB%E5%AD%90%E6%9B%B8%E7%B1%8D
p662
(i__main__
ScrapingData
(dp663
g4
S''
sg5
S''
sg6
S''
sg7
Vhttps://www.amazon.co.jp/%E6%AD%B4%E5%8F%B2%E3%83%BB%E5%9C%B0%E7%90%86-Kindle-%E3%82%AD%E3%83%B3%E3%83%89%E3%83%AB-%E9%9B%BB%E5%AD%90%E6%9B%B8%E7%B1%8D/b?ie=UTF8&node=2293076051
p664
sg9
I0
sg10
(lp665
sg12
I0
sg13
S''
sg14
g662
sbtp666
a(Vhttps://www.amazon.co.jp/%E3%83%93%E3%82%B8%E3%83%8D%E3%82%B9%E3%83%BB%E7%B5%8C%E6%B8%88-Kindle-%E3%82%AD%E3%83%B3%E3%83%89%E3%83%AB-%E9%9B%BB%E5%AD%90%E6%9B%B8%E7%B1%8D
p667
(i__main__
ScrapingData
(dp668
g4
S''
sg5
S''
sg6
S''
sg7
Vhttps://www.amazon.co.jp/%E3%83%93%E3%82%B8%E3%83%8D%E3%82%B9%E3%83%BB%E7%B5%8C%E6%B8%88-Kindle-%E3%82%AD%E3%83%B3%E3%83%89%E3%83%AB-%E9%9B%BB%E5%AD%90%E6%9B%B8%E7%B1%8D/b?ie=UTF8&node=2291905051
p669
sg9
I0
sg10
(lp670
sg12
I0
sg13
S''
sg14
g667
sbtp671
a(Vhttps://www.amazon.co.jp/%E6%8A%95%E8%B3%87%E3%83%BB%E9%87%91%E8%9E%8D%E3%83%BB%E4%BC%9A%E7%A4%BE%E7%B5%8C%E5%96%B6-Kindle-%E3%82%AD%E3%83%B3%E3%83%89%E3%83%AB-%E9%9B%BB%E5%AD%90%E6%9B%B8%E7%B1%8D
p672
(i__main__
ScrapingData
(dp673
g4
S''
sg5
S''
sg6
S''
sg7
Vhttps://www.amazon.co.jp/%E6%8A%95%E8%B3%87%E3%83%BB%E9%87%91%E8%9E%8D%E3%83%BB%E4%BC%9A%E7%A4%BE%E7%B5%8C%E5%96%B6-Kindle-%E3%82%AD%E3%83%B3%E3%83%89%E3%83%AB-%E9%9B%BB%E5%AD%90%E6%9B%B8%E7%B1%8D/b?ie=UTF8&node=2292576051
p674
sg9
I0
sg10
(lp675
sg12
I0
sg13
S''
sg14
g672
sbtp676
a(Vhttps://www.amazon.co.jp/%E7%A7%91%E5%AD%A6%E3%83%BB%E3%83%86%E3%82%AF%E3%83%8E%E3%83%AD%E3%82%B8%E3%83%BC-Kindle-%E3%82%AD%E3%83%B3%E3%83%89%E3%83%AB-%E9%9B%BB%E5%AD%90%E6%9B%B8%E7%B1%8D
p677
(i__main__
ScrapingData
(dp678
g4
S''
sg5
S''
sg6
S''
sg7
Vhttps://www.amazon.co.jp/%E7%A7%91%E5%AD%A6%E3%83%BB%E3%83%86%E3%82%AF%E3%83%8E%E3%83%AD%E3%82%B8%E3%83%BC-Kindle-%E3%82%AD%E3%83%B3%E3%83%89%E3%83%AB-%E9%9B%BB%E5%AD%90%E6%9B%B8%E7%B1%8D/b?ie=UTF8&node=2293263051
p679
sg9
I0
sg10
(lp680
sg12
I0
sg13
S''
sg14
g677
sbtp681
a(Vhttps://www.amazon.co.jp/%E5%8C%BB%E5%AD%A6%E3%83%BB%E8%96%AC%E5%AD%A6-Kindle-%E3%82%AD%E3%83%B3%E3%83%89%E3%83%AB-%E9%9B%BB%E5%AD%90%E6%9B%B8%E7%B1%8D
p682
(i__main__
ScrapingData
(dp683
g4
S''
sg5
S''
sg6
S''
sg7
Vhttps://www.amazon.co.jp/%E5%8C%BB%E5%AD%A6%E3%83%BB%E8%96%AC%E5%AD%A6-Kindle-%E3%82%AD%E3%83%B3%E3%83%89%E3%83%AB-%E9%9B%BB%E5%AD%90%E6%9B%B8%E7%B1%8D/b?ie=UTF8&node=2292340051
p684
sg9
I0
sg10
(lp685
sg12
I0
sg13
S''
sg14
g682
sbtp686
a(Vhttps://www.amazon.co.jp/%E3%82%B3%E3%83%B3%E3%83%94%E3%83%A5%E3%83%BC%E3%82%BF%E3%83%BBIT-Kindle-%E3%82%AD%E3%83%B3%E3%83%89%E3%83%AB-%E9%9B%BB%E5%AD%90%E6%9B%B8%E7%B1%8D
p687
(i__main__
ScrapingData
(dp688
g4
S''
sg5
S''
sg6
S''
sg7
Vhttps://www.amazon.co.jp/%E3%82%B3%E3%83%B3%E3%83%94%E3%83%A5%E3%83%BC%E3%82%BF%E3%83%BBIT-Kindle-%E3%82%AD%E3%83%B3%E3%83%89%E3%83%AB-%E9%9B%BB%E5%AD%90%E6%9B%B8%E7%B1%8D/b?ie=UTF8&node=2291657051
p689
sg9
I0
sg10
(lp690
sg12
I0
sg13
S''
sg14
g687
sbtp691
a(Vhttps://www.amazon.co.jp/%E3%82%A2%E3%83%BC%E3%83%88%E3%83%BB%E5%BB%BA%E7%AF%89%E3%83%BB%E3%83%87%E3%82%B6%E3%82%A4%E3%83%B3-Kindle-%E3%82%AD%E3%83%B3%E3%83%89%E3%83%AB-%E9%9B%BB%E5%AD%90%E6%9B%B8%E7%B1%8D
p692
(i__main__
ScrapingData
(dp693
g4
S''
sg5
S''
sg6
S''
sg7
Vhttps://www.amazon.co.jp/%E3%82%A2%E3%83%BC%E3%83%88%E3%83%BB%E5%BB%BA%E7%AF%89%E3%83%BB%E3%83%87%E3%82%B6%E3%82%A4%E3%83%B3-Kindle-%E3%82%AD%E3%83%B3%E3%83%89%E3%83%AB-%E9%9B%BB%E5%AD%90%E6%9B%B8%E7%B1%8D/b?ie=UTF8&node=2291481051
p694
sg9
I0
sg10
(lp695
sg12
I0
sg13
S''
sg14
g692
sbtp696
a(Vhttps://www.amazon.co.jp/%E5%AE%9F%E7%94%A8%E3%83%BB%E3%83%9B%E3%83%93%E3%83%BC-Kindle-%E3%82%AD%E3%83%B3%E3%83%89%E3%83%AB-%E9%9B%BB%E5%AD%90%E6%9B%B8%E7%B1%8D
p697
(i__main__
ScrapingData
(dp698
g4
S''
sg5
S''
sg6
S''
sg7
Vhttps://www.amazon.co.jp/%E5%AE%9F%E7%94%A8%E3%83%BB%E3%83%9B%E3%83%93%E3%83%BC-Kindle-%E3%82%AD%E3%83%B3%E3%83%89%E3%83%AB-%E9%9B%BB%E5%AD%90%E6%9B%B8%E7%B1%8D/b?ie=UTF8&node=2292479051
p699
sg9
I0
sg10
(lp700
sg12
I0
sg13
S''
sg14
g697
sbtp701
a(Vhttps://www.amazon.co.jp/%E3%82%B9%E3%83%9D%E3%83%BC%E3%83%84%E3%83%BB%E3%82%A2%E3%82%A6%E3%83%88%E3%83%89%E3%82%A2-Kindle-%E3%82%AD%E3%83%B3%E3%83%89%E3%83%AB-%E9%9B%BB%E5%AD%90%E6%9B%B8%E7%B1%8D
p702
(i__main__
ScrapingData
(dp703
g4
S''
sg5
S''
sg6
S''
sg7
Vhttps://www.amazon.co.jp/%E3%82%B9%E3%83%9D%E3%83%BC%E3%83%84%E3%83%BB%E3%82%A2%E3%82%A6%E3%83%88%E3%83%89%E3%82%A2-Kindle-%E3%82%AD%E3%83%B3%E3%83%89%E3%83%AB-%E9%9B%BB%E5%AD%90%E6%9B%B8%E7%B1%8D/b?ie=UTF8&node=2292480051
p704
sg9
I0
sg10
(lp705
sg12
I0
sg13
S''
sg14
g702
sbtp706
a(Vhttps://www.amazon.co.jp/%E8%B3%87%E6%A0%BC%E3%83%BB%E6%A4%9C%E5%AE%9A-Kindle-%E3%82%AD%E3%83%B3%E3%83%89%E3%83%AB-%E9%9B%BB%E5%AD%90%E6%9B%B8%E7%B1%8D
p707
(i__main__
ScrapingData
(dp708
g4
S''
sg5
S''
sg6
S''
sg7
Vhttps://www.amazon.co.jp/%E8%B3%87%E6%A0%BC%E3%83%BB%E6%A4%9C%E5%AE%9A-Kindle-%E3%82%AD%E3%83%B3%E3%83%89%E3%83%AB-%E9%9B%BB%E5%AD%90%E6%9B%B8%E7%B1%8D/b?ie=UTF8&node=2293536051
p709
sg9
I0
sg10
(lp710
sg12
I0
sg13
S''
sg14
g707
sbtp711
a(Vhttps://www.amazon.co.jp/%E6%9A%AE%E3%82%89%E3%81%97%E3%83%BB%E5%81%A5%E5%BA%B7%E3%83%BB%E5%AD%90%E8%82%B2%E3%81%A6-Kindle-%E3%82%AD%E3%83%B3%E3%83%89%E3%83%AB-%E9%9B%BB%E5%AD%90%E6%9B%B8%E7%B1%8D
p712
(i__main__
ScrapingData
(dp713
g4
S''
sg5
S''
sg6
S''
sg7
Vhttps://www.amazon.co.jp/%E6%9A%AE%E3%82%89%E3%81%97%E3%83%BB%E5%81%A5%E5%BA%B7%E3%83%BB%E5%AD%90%E8%82%B2%E3%81%A6-Kindle-%E3%82%AD%E3%83%B3%E3%83%89%E3%83%AB-%E9%9B%BB%E5%AD%90%E6%9B%B8%E7%B1%8D/b?ie=UTF8&node=2292803051
p714
sg9
I0
sg10
(lp715
sg12
I0
sg13
S''
sg14
g712
sbtp716
a(Vhttps://www.amazon.co.jp/%E6%97%85%E8%A1%8C%E3%82%AC%E3%82%A4%E3%83%89%E3%83%BB%E3%83%9E%E3%83%83%E3%83%97-Kindle-%E3%82%AD%E3%83%B3%E3%83%89%E3%83%AB-%E9%9B%BB%E5%AD%90%E6%9B%B8%E7%B1%8D
p717
(i__main__
ScrapingData
(dp718
g4
S''
sg5
S''
sg6
S''
sg7
Vhttps://www.amazon.co.jp/%E6%97%85%E8%A1%8C%E3%82%AC%E3%82%A4%E3%83%89%E3%83%BB%E3%83%9E%E3%83%83%E3%83%97-Kindle-%E3%82%AD%E3%83%B3%E3%83%89%E3%83%AB-%E9%9B%BB%E5%AD%90%E6%9B%B8%E7%B1%8D/b?ie=UTF8&node=2292799051
p719
sg9
I0
sg10
(lp720
sg12
I0
sg13
S''
sg14
g717
sbtp721
a(Vhttps://www.amazon.co.jp/%E8%AA%9E%E5%AD%A6%E3%83%BB%E8%BE%9E%E4%BA%8B%E5%85%B8%E3%83%BB%E5%B9%B4%E9%91%91-Kindle-%E3%82%AD%E3%83%B3%E3%83%89%E3%83%AB-%E9%9B%BB%E5%AD%90%E6%9B%B8%E7%B1%8D
p722
(i__main__
ScrapingData
(dp723
g4
S''
sg5
S''
sg6
S''
sg7
Vhttps://www.amazon.co.jp/%E8%AA%9E%E5%AD%A6%E3%83%BB%E8%BE%9E%E4%BA%8B%E5%85%B8%E3%83%BB%E5%B9%B4%E9%91%91-Kindle-%E3%82%AD%E3%83%B3%E3%83%89%E3%83%AB-%E9%9B%BB%E5%AD%90%E6%9B%B8%E7%B1%8D/b?ie=UTF8&node=2293396051
p724
sg9
I0
sg10
(lp725
sg12
I0
sg13
S''
sg14
g722
sbtp726
a(Vhttps://www.amazon.co.jp/%E6%95%99%E8%82%B2%E3%83%BB%E5%AD%A6%E5%8F%82%E3%83%BB%E5%8F%97%E9%A8%93-Kindle-%E3%82%AD%E3%83%B3%E3%83%89%E3%83%AB-%E9%9B%BB%E5%AD%90%E6%9B%B8%E7%B1%8D
p727
(i__main__
ScrapingData
(dp728
g4
S''
sg5
S''
sg6
S''
sg7
Vhttps://www.amazon.co.jp/%E6%95%99%E8%82%B2%E3%83%BB%E5%AD%A6%E5%8F%82%E3%83%BB%E5%8F%97%E9%A8%93-Kindle-%E3%82%AD%E3%83%B3%E3%83%89%E3%83%AB-%E9%9B%BB%E5%AD%90%E6%9B%B8%E7%B1%8D/b?ie=UTF8&node=2292600051
p729
sg9
I0
sg10
(lp730
sg12
I0
sg13
S''
sg14
g727
sbtp731
a(Vhttps://www.amazon.co.jp/%E7%B5%B5%E6%9C%AC%E3%83%BB%E5%85%90%E7%AB%A5%E6%9B%B8-Kindle-%E3%82%AD%E3%83%B3%E3%83%89%E3%83%AB-%E9%9B%BB%E5%AD%90%E6%9B%B8%E7%B1%8D
p732
(i__main__
ScrapingData
(dp733
g4
S''
sg5
S''
sg6
S''
sg7
Vhttps://www.amazon.co.jp/%E7%B5%B5%E6%9C%AC%E3%83%BB%E5%85%90%E7%AB%A5%E6%9B%B8-Kindle-%E3%82%AD%E3%83%B3%E3%83%89%E3%83%AB-%E9%9B%BB%E5%AD%90%E6%9B%B8%E7%B1%8D/b?ie=UTF8&node=2293363051
p734
sg9
I0
sg10
(lp735
sg12
I0
sg13
S''
sg14
g732
sbtp736
a(Vhttps://www.amazon.co.jp/%E3%83%A9%E3%82%A4%E3%83%88%E3%83%8E%E3%83%99%E3%83%AB-%E3%83%A9%E3%83%8E%E3%83%99-Kindle-%E3%82%AD%E3%83%B3%E3%83%89%E3%83%AB-%E9%9B%BB%E5%AD%90%E6%9B%B8%E7%B1%8D
p737
(i__main__
ScrapingData
(dp738
g4
S''
sg5
S''
sg6
S''
sg7
Vhttps://www.amazon.co.jp/%E3%83%A9%E3%82%A4%E3%83%88%E3%83%8E%E3%83%99%E3%83%AB-%E3%83%A9%E3%83%8E%E3%83%99-Kindle-%E3%82%AD%E3%83%B3%E3%83%89%E3%83%AB-%E9%9B%BB%E5%AD%90%E6%9B%B8%E7%B1%8D/b?ie=UTF8&node=2410280051
p739
sg9
I0
sg10
(lp740
sg12
I0
sg13
S''
sg14
g737
sbtp741
a(Vhttps://www.amazon.co.jp/%E3%83%9C%E3%83%BC%E3%82%A4%E3%82%BA%E3%83%A9%E3%83%96%E3%82%B3%E3%83%9F%E3%83%83%E3%82%AF-BL%E3%82%B3%E3%83%9F%E3%83%83%E3%82%AF-Kindle-%E3%82%AD%E3%83%B3%E3%83%89%E3%83%AB-%E9%9B%BB%E5%AD%90%E6%9B%B8%E7%B1%8D
p742
(i__main__
ScrapingData
(dp743
g4
S''
sg5
S''
sg6
S''
sg7
Vhttps://www.amazon.co.jp/%E3%83%9C%E3%83%BC%E3%82%A4%E3%82%BA%E3%83%A9%E3%83%96%E3%82%B3%E3%83%9F%E3%83%83%E3%82%AF-BL%E3%82%B3%E3%83%9F%E3%83%83%E3%82%AF-Kindle-%E3%82%AD%E3%83%B3%E3%83%89%E3%83%AB-%E9%9B%BB%E5%AD%90%E6%9B%B8%E7%B1%8D/b?ie=UTF8&node=2293147051
p744
sg9
I0
sg10
(lp745
sg12
I0
sg13
S''
sg14
g742
sbtp746
a(Vhttps://www.amazon.co.jp/%E3%82%BF%E3%83%AC%E3%83%B3%E3%83%88%E5%86%99%E7%9C%9F%E9%9B%86-Kindle-%E3%82%AD%E3%83%B3%E3%83%89%E3%83%AB-%E9%9B%BB%E5%AD%90%E6%9B%B8%E7%B1%8D
p747
(i__main__
ScrapingData
(dp748
g4
S''
sg5
S''
sg6
S''
sg7
Vhttps://www.amazon.co.jp/%E3%82%BF%E3%83%AC%E3%83%B3%E3%83%88%E5%86%99%E7%9C%9F%E9%9B%86-Kindle-%E3%82%AD%E3%83%B3%E3%83%89%E3%83%AB-%E9%9B%BB%E5%AD%90%E6%9B%B8%E7%B1%8D/b?ie=UTF8&node=2291790051
p749
sg9
I0
sg10
(lp750
sg12
I0
sg13
S''
sg14
g747
sbtp751
a(Vhttps://www.amazon.co.jp/%E3%82%A8%E3%83%B3%E3%82%BF%E3%83%BC%E3%83%86%E3%82%A4%E3%83%A1%E3%83%B3%E3%83%88-Kindle-%E3%82%AD%E3%83%B3%E3%83%89%E3%83%AB-%E9%9B%BB%E5%AD%90%E6%9B%B8%E7%B1%8D
p752
(i__main__
ScrapingData
(dp753
g4
S''
sg5
S''
sg6
S''
sg7
Vhttps://www.amazon.co.jp/%E3%82%A8%E3%83%B3%E3%82%BF%E3%83%BC%E3%83%86%E3%82%A4%E3%83%A1%E3%83%B3%E3%83%88-Kindle-%E3%82%AD%E3%83%B3%E3%83%89%E3%83%AB-%E9%9B%BB%E5%AD%90%E6%9B%B8%E7%B1%8D/b?ie=UTF8&node=2291568051
p754
sg9
I0
sg10
(lp755
sg12
I0
sg13
S''
sg14
g752
sbtp756
a(Vhttps://www.amazon.co.jp/%E3%82%A2%E3%83%80%E3%83%AB%E3%83%88-Kindle-%E3%82%AD%E3%83%B3%E3%83%89%E3%83%AB-%E9%9B%BB%E5%AD%90%E6%9B%B8%E7%B1%8D
p757
(i__main__
ScrapingData
(dp758
g4
S''
sg5
S''
sg6
S''
sg7
Vhttps://www.amazon.co.jp/%E3%82%A2%E3%83%80%E3%83%AB%E3%83%88-Kindle-%E3%82%AD%E3%83%B3%E3%83%89%E3%83%AB-%E9%9B%BB%E5%AD%90%E6%9B%B8%E7%B1%8D/b?ie=UTF8&node=2291476051
p759
sg9
I0
sg10
(lp760
sg12
I0
sg13
S''
sg14
g757
sbtp761
a(Vhttps://www.amazon.co.jp/Kindle%E6%9C%AC-%E3%82%B8%E3%83%A3%E3%83%B3%E3%83%AB%E4%B8%80%E8%A6%A7
p762
(i__main__
ScrapingData
(dp763
g4
S''
sg5
S''
sg6
S''
sg7
Vhttps://www.amazon.co.jp/Kindle%E6%9C%AC-%E3%82%B8%E3%83%A3%E3%83%B3%E3%83%AB%E4%B8%80%E8%A6%A7/b?ie=UTF8&node=2313863051
p764
sg9
I0
sg10
(lp765
sg12
I0
sg13
S''
sg14
g762
sbtp766
a(Vhttps://www.amazon.co.jp/Kindle%E3%82%B9%E3%83%88%E3%82%A2-%E8%BF%91%E6%97%A5%E7%99%BA%E5%A3%B2-30%E6%97%A5%E4%BB%A5%E5%86%85
p767
(i__main__
ScrapingData
(dp768
g4
S''
sg5
S''
sg6
S''
sg7
Vhttps://www.amazon.co.jp/Kindle%E3%82%B9%E3%83%88%E3%82%A2-%E8%BF%91%E6%97%A5%E7%99%BA%E5%A3%B2-30%E6%97%A5%E4%BB%A5%E5%86%85/s?ie=UTF8&page=1&rh=n%3A2250738051%2Cp_n_date%3A2275273051
p769
sg9
I0
sg10
(lp770
sg12
I0
sg13
S''
sg14
g767
sbtp771
a(Vhttps://www.amazon.co.jp/Kindle%E3%82%B9%E3%83%88%E3%82%A2-%E9%81%8E%E5%8E%BB7%E6%97%A5
p772
(i__main__
ScrapingData
(dp773
g4
S''
sg5
S''
sg6
S''
sg7
Vhttps://www.amazon.co.jp/Kindle%E3%82%B9%E3%83%88%E3%82%A2-%E9%81%8E%E5%8E%BB7%E6%97%A5/s?ie=UTF8&page=1&rh=n%3A2250738051%2Cp_n_date%3A2275275051
p774
sg9
I0
sg10
(lp775
sg12
I0
sg13
S''
sg14
g772
sbtp776
a(Vhttps://www.amazon.co.jp/Kindle%E3%82%B9%E3%83%88%E3%82%A2-%E9%81%8E%E5%8E%BB30%E6%97%A5
p777
(i__main__
ScrapingData
(dp778
g4
S''
sg5
S''
sg6
S''
sg7
Vhttps://www.amazon.co.jp/Kindle%E3%82%B9%E3%83%88%E3%82%A2-%E9%81%8E%E5%8E%BB30%E6%97%A5/s?ie=UTF8&page=1&rh=n%3A2250738051%2Cp_n_date%3A2275274051
p779
sg9
I0
sg10
(lp780
sg12
I0
sg13
S''
sg14
g777
sbtp781
a(Vhttps://www.amazon.co.jp/%E3%83%87%E3%83%90%E3%82%A4%E3%82%B9
p782
(i__main__
ScrapingData
(dp783
g4
S''
sg5
S''
sg6
S''
sg7
Vhttps://www.amazon.co.jp/%E3%83%87%E3%83%90%E3%82%A4%E3%82%B9/b?ie=UTF8&node=2408695051
p784
sg9
I0
sg10
(lp785
sg12
I0
sg13
S''
sg14
g782
sbtp786
a(Vhttps://www.amazon.co.jp/Kindle%E3%82%B9%E3%83%88%E3%82%A2-%E6%98%9F4%E3%81%A4%E4%BB%A5%E4%B8%8A
p787
(i__main__
ScrapingData
(dp788
g4
S''
sg5
S''
sg6
S''
sg7
Vhttps://www.amazon.co.jp/Kindle%E3%82%B9%E3%83%88%E3%82%A2-%E6%98%9F4%E3%81%A4%E4%BB%A5%E4%B8%8A/s?ie=UTF8&page=1&rh=n%3A2250738051%2Cp_72%3A2275269051
p789
sg9
I0
sg10
(lp790
sg12
I0
sg13
S''
sg14
g787
sbtp791
a(Vhttps://www.amazon.co.jp/Kindle%E3%82%B9%E3%83%88%E3%82%A2-%E6%98%9F3%E3%81%A4%E4%BB%A5%E4%B8%8A
p792
(i__main__
ScrapingData
(dp793
g4
S''
sg5
S''
sg6
S''
sg7
Vhttps://www.amazon.co.jp/Kindle%E3%82%B9%E3%83%88%E3%82%A2-%E6%98%9F3%E3%81%A4%E4%BB%A5%E4%B8%8A/s?ie=UTF8&page=1&rh=n%3A2250738051%2Cp_72%3A2275270051
p794
sg9
I0
sg10
(lp795
sg12
I0
sg13
S''
sg14
g792
sbtp796
a(Vhttps://www.amazon.co.jp/Kindle%E3%82%B9%E3%83%88%E3%82%A2-%E6%98%9F2%E3%81%A4%E4%BB%A5%E4%B8%8A
p797
(i__main__
ScrapingData
(dp798
g4
S''
sg5
S''
sg6
S''
sg7
Vhttps://www.amazon.co.jp/Kindle%E3%82%B9%E3%83%88%E3%82%A2-%E6%98%9F2%E3%81%A4%E4%BB%A5%E4%B8%8A/s?ie=UTF8&page=1&rh=n%3A2250738051%2Cp_72%3A2275271051
p799
sg9
I0
sg10
(lp800
sg12
I0
sg13
S''
sg14
g797
sbtp801
a(Vhttps://www.amazon.co.jp/Kindle%E3%82%B9%E3%83%88%E3%82%A2-%E6%98%9F1%E3%81%A4%E4%BB%A5%E4%B8%8A
p802
(i__main__
ScrapingData
(dp803
g4
S''
sg5
S''
sg6
S''
sg7
Vhttps://www.amazon.co.jp/Kindle%E3%82%B9%E3%83%88%E3%82%A2-%E6%98%9F1%E3%81%A4%E4%BB%A5%E4%B8%8A/s?ie=UTF8&page=1&rh=n%3A2250738051%2Cp_72%3A2275272051
p804
sg9
I0
sg10
(lp805
sg12
I0
sg13
S''
sg14
g802
sbtp806
a(Vhttps://www.amazon.co.jp/Kindle%E3%82%B9%E3%83%88%E3%82%A2-%E9%9B%A8%E9%9A%A0-%E3%82%AE%E3%83%89
p807
(i__main__
ScrapingData
(dp808
g4
S''
sg5
S''
sg6
S''
sg7
Vhttps://www.amazon.co.jp/Kindle%E3%82%B9%E3%83%88%E3%82%A2-%E9%9B%A8%E9%9A%A0-%E3%82%AE%E3%83%89/s?ie=UTF8&page=1&rh=n%3A2250738051%2Cp_lbr_three_browse-bin%3A%E9%9B%A8%E9%9A%A0%20%E3%82%AE%E3%83%89
p809
sg9
I0
sg10
(lp810
sg12
I0
sg13
S''
sg14
g807
sbtp811
a(Vhttps://www.amazon.co.jp/Kindle%E3%82%B9%E3%83%88%E3%82%A2-%E6%89%8B%E5%A1%9A-%E6%B2%BB%E8%99%AB
p812
(i__main__
ScrapingData
(dp813
g4
S''
sg5
S''
sg6
S''
sg7
Vhttps://www.amazon.co.jp/Kindle%E3%82%B9%E3%83%88%E3%82%A2-%E6%89%8B%E5%A1%9A-%E6%B2%BB%E8%99%AB/s?ie=UTF8&page=1&rh=n%3A2250738051%2Cp_lbr_three_browse-bin%3A%E6%89%8B%E5%A1%9A%20%E6%B2%BB%E8%99%AB
p814
sg9
I0
sg10
(lp815
sg12
I0
sg13
S''
sg14
g812
sbtp816
a(Vhttps://www.amazon.co.jp/Kindle%E3%82%B9%E3%83%88%E3%82%A2-%E3%82%86%E3%81%86%E3%81%8D-%E3%81%BE%E3%81%95%E3%81%BF
p817
(i__main__
ScrapingData
(dp818
g4
S''
sg5
S''
sg6
S''
sg7
Vhttps://www.amazon.co.jp/Kindle%E3%82%B9%E3%83%88%E3%82%A2-%E3%82%86%E3%81%86%E3%81%8D-%E3%81%BE%E3%81%95%E3%81%BF/s?ie=UTF8&page=1&rh=n%3A2250738051%2Cp_lbr_three_browse-bin%3A%E3%82%86%E3%81%86%E3%81%8D%20%E3%81%BE%E3%81%95%E3%81%BF
p819
sg9
I0
sg10
(lp820
sg12
I0
sg13
S''
sg14
g817
sbtp821
a(Vhttps://www.amazon.co.jp/Kindle%E3%82%B9%E3%83%88%E3%82%A2-%E3%82%AB%E3%82%B5%E3%83%8F%E3%83%A9-%E3%83%86%E3%83%84%E3%83%AD%E3%83%BC
p822
(i__main__
ScrapingData
(dp823
g4
S''
sg5
S''
sg6
S''
sg7
Vhttps://www.amazon.co.jp/Kindle%E3%82%B9%E3%83%88%E3%82%A2-%E3%82%AB%E3%82%B5%E3%83%8F%E3%83%A9-%E3%83%86%E3%83%84%E3%83%AD%E3%83%BC/s?ie=UTF8&page=1&rh=n%3A2250738051%2Cp_lbr_three_browse-bin%3A%E3%82%AB%E3%82%B5%E3%83%8F%E3%83%A9%20%E3%83%86%E3%83%84%E3%83%AD%E3%83%BC
p824
sg9
I0
sg10
(lp825
sg12
I0
sg13
S''
sg14
g822
sbtp826
a(Vhttps://www.amazon.co.jp/Kindle%E3%82%B9%E3%83%88%E3%82%A2-%E3%82%B0%E3%83%A9%E3%83%8F%E3%83%A0%E3%83%BB%E3%83%8F%E3%83%B3%E3%82%B3%E3%83%83%E3%82%AF
p827
(i__main__
ScrapingData
(dp828
g4
S''
sg5
S''
sg6
S''
sg7
Vhttps://www.amazon.co.jp/Kindle%E3%82%B9%E3%83%88%E3%82%A2-%E3%82%B0%E3%83%A9%E3%83%8F%E3%83%A0%E3%83%BB%E3%83%8F%E3%83%B3%E3%82%B3%E3%83%83%E3%82%AF/s?ie=UTF8&page=1&rh=n%3A2250738051%2Cp_lbr_three_browse-bin%3A%E3%82%B0%E3%83%A9%E3%83%8F%E3%83%A0%E3%83%BB%E3%83%8F%E3%83%B3%E3%82%B3%E3%83%83%E3%82%AF
p829
sg9
I0
sg10
(lp830
sg12
I0
sg13
S''
sg14
g827
sbtp831
a(Vhttps://www.amazon.co.jp/Kindle%E3%82%B9%E3%83%88%E3%82%A2-%E6%B8%A1%E8%BE%BA-%E6%BD%A4
p832
(i__main__
ScrapingData
(dp833
g4
S''
sg5
S''
sg6
S''
sg7
Vhttps://www.amazon.co.jp/Kindle%E3%82%B9%E3%83%88%E3%82%A2-%E6%B8%A1%E8%BE%BA-%E6%BD%A4/s?ie=UTF8&page=1&rh=n%3A2250738051%2Cp_lbr_three_browse-bin%3A%E6%B8%A1%E8%BE%BA%20%E6%BD%A4
p834
sg9
I0
sg10
(lp835
sg12
I0
sg13
S''
sg14
g832
sbtp836
a(Vhttps://www.amazon.co.jp/Kindle%E3%82%B9%E3%83%88%E3%82%A2-%E3%81%95%E3%81%A8%E3%81%86%E3%81%B5%E3%81%BF%E3%82%84
p837
(i__main__
ScrapingData
(dp838
g4
S''
sg5
S''
sg6
S''
sg7
Vhttps://www.amazon.co.jp/Kindle%E3%82%B9%E3%83%88%E3%82%A2-%E3%81%95%E3%81%A8%E3%81%86%E3%81%B5%E3%81%BF%E3%82%84/s?ie=UTF8&page=1&rh=n%3A2250738051%2Cp_lbr_three_browse-bin%3A%E3%81%95%E3%81%A8%E3%81%86%E3%81%B5%E3%81%BF%E3%82%84
p839
sg9
I0
sg10
(lp840
sg12
I0
sg13
S''
sg14
g837
sbtp841
a(Vhttps://www.amazon.co.jp/gp/search
p842
(i__main__
ScrapingData
(dp843
g4
S''
sg5
S''
sg6
S''
sg7
Vhttps://www.amazon.co.jp/gp/search/other?ie=UTF8&page=1&pickerToList=lbr_three_browse-bin&rh=n%3A2250738051
p844
sg9
I0
sg10
(lp845
sg12
I0
sg13
S''
sg14
g842
sbtp846
a(Vhttps://www.amazon.co.jp/Kindle%E3%82%B9%E3%83%88%E3%82%A2-%E8%AC%9B%E8%AB%87%E7%A4%BE
p847
(i__main__
ScrapingData
(dp848
g4
S''
sg5
S''
sg6
S''
sg7
Vhttps://www.amazon.co.jp/Kindle%E3%82%B9%E3%83%88%E3%82%A2-%E8%AC%9B%E8%AB%87%E7%A4%BE/s?ie=UTF8&page=1&rh=n%3A2250738051%2Cp_lbr_publishers_browse-bin%3A%E8%AC%9B%E8%AB%87%E7%A4%BE
p849
sg9
I0
sg10
(lp850
sg12
I0
sg13
S''
sg14
g847
sbtp851
a(Vhttps://www.amazon.co.jp/Kindle%E3%82%B9%E3%83%88%E3%82%A2-KADOKAWA-%E8%A7%92%E5%B7%9D%E6%9B%B8%E5%BA%97
p852
(i__main__
ScrapingData
(dp853
g4
S''
sg5
S''
sg6
S''
sg7
Vhttps://www.amazon.co.jp/Kindle%E3%82%B9%E3%83%88%E3%82%A2-KADOKAWA-%E8%A7%92%E5%B7%9D%E6%9B%B8%E5%BA%97/s?ie=UTF8&page=1&rh=n%3A2250738051%2Cp_lbr_publishers_browse-bin%3AKADOKAWA%2F%E8%A7%92%E5%B7%9D%E6%9B%B8%E5%BA%97
p854
sg9
I0
sg10
(lp855
sg12
I0
sg13
S''
sg14
g852
sbtp856
a(Vhttps://www.amazon.co.jp/Kindle%E3%82%B9%E3%83%88%E3%82%A2-%E9%9B%86%E8%8B%B1%E7%A4%BE
p857
(i__main__
ScrapingData
(dp858
g4
S''
sg5
S''
sg6
S''
sg7
Vhttps://www.amazon.co.jp/Kindle%E3%82%B9%E3%83%88%E3%82%A2-%E9%9B%86%E8%8B%B1%E7%A4%BE/s?ie=UTF8&page=1&rh=n%3A2250738051%2Cp_lbr_publishers_browse-bin%3A%E9%9B%86%E8%8B%B1%E7%A4%BE
p859
sg9
I0
sg10
(lp860
sg12
I0
sg13
S''
sg14
g857
sbtp861
a(Vhttps://www.amazon.co.jp/Kindle%E3%82%B9%E3%83%88%E3%82%A2-%E7%AD%91%E6%91%A9%E6%9B%B8%E6%88%BF
p862
(i__main__
ScrapingData
(dp863
g4
S''
sg5
S''
sg6
S''
sg7
Vhttps://www.amazon.co.jp/Kindle%E3%82%B9%E3%83%88%E3%82%A2-%E7%AD%91%E6%91%A9%E6%9B%B8%E6%88%BF/s?ie=UTF8&page=1&rh=n%3A2250738051%2Cp_lbr_publishers_browse-bin%3A%E7%AD%91%E6%91%A9%E6%9B%B8%E6%88%BF
p864
sg9
I0
sg10
(lp865
sg12
I0
sg13
S''
sg14
g862
sbtp866
a(Vhttps://www.amazon.co.jp/Kindle%E3%82%B9%E3%83%88%E3%82%A2-%E6%96%87%E8%97%9D%E6%98%A5%E7%A7%8B
p867
(i__main__
ScrapingData
(dp868
g4
S''
sg5
S''
sg6
S''
sg7
Vhttps://www.amazon.co.jp/Kindle%E3%82%B9%E3%83%88%E3%82%A2-%E6%96%87%E8%97%9D%E6%98%A5%E7%A7%8B/s?ie=UTF8&page=1&rh=n%3A2250738051%2Cp_lbr_publishers_browse-bin%3A%E6%96%87%E8%97%9D%E6%98%A5%E7%A7%8B
p869
sg9
I0
sg10
(lp870
sg12
I0
sg13
S''
sg14
g867
sbtp871
a(Vhttps://www.amazon.co.jp/Kindle%E3%82%B9%E3%83%88%E3%82%A2-%E3%82%A4%E3%83%BC%E3%82%B9%E3%83%88%E3%83%BB%E3%83%97%E3%83%AC%E3%82%B9
p872
(i__main__
ScrapingData
(dp873
g4
S''
sg5
S''
sg6
S''
sg7
Vhttps://www.amazon.co.jp/Kindle%E3%82%B9%E3%83%88%E3%82%A2-%E3%82%A4%E3%83%BC%E3%82%B9%E3%83%88%E3%83%BB%E3%83%97%E3%83%AC%E3%82%B9/s?ie=UTF8&page=1&rh=n%3A2250738051%2Cp_lbr_publishers_browse-bin%3A%E3%82%A4%E3%83%BC%E3%82%B9%E3%83%88%E3%83%BB%E3%83%97%E3%83%AC%E3%82%B9
p874
sg9
I0
sg10
(lp875
sg12
I0
sg13
S''
sg14
g872
sbtp876
a(Vhttps://www.amazon.co.jp/Kindle%E3%82%B9%E3%83%88%E3%82%A2-%E5%B0%8F%E5%AD%A6%E9%A4%A8
p877
(i__main__
ScrapingData
(dp878
g4
S''
sg5
S''
sg6
S''
sg7
Vhttps://www.amazon.co.jp/Kindle%E3%82%B9%E3%83%88%E3%82%A2-%E5%B0%8F%E5%AD%A6%E9%A4%A8/s?ie=UTF8&page=1&rh=n%3A2250738051%2Cp_lbr_publishers_browse-bin%3A%E5%B0%8F%E5%AD%A6%E9%A4%A8
p879
sg9
I0
sg10
(lp880
sg12
I0
sg13
S''
sg14
g877
sbtp881
a(Vhttps://www.amazon.co.jp/Kindle%E3%82%B9%E3%83%88%E3%82%A2-Word-Wise-%E5%AF%BE%E5%BF%9C
p882
(i__main__
ScrapingData
(dp883
g4
S''
sg5
S''
sg6
S''
sg7
Vhttps://www.amazon.co.jp/Kindle%E3%82%B9%E3%83%88%E3%82%A2-Word-Wise-%E5%AF%BE%E5%BF%9C/s?ie=UTF8&page=1&rh=n%3A2250738051%2Cp_n_special_occasion_browse-bin%3A3349709051
p884
sg9
I0
sg10
(lp885
sg12
I0
sg13
S''
sg14
g882
sbtp886
a(Vhttp://www.amazon.co.jp:80/gp/redirect.html?location=http://kdp.amazon.co.jp
p887
(i__main__
ScrapingData
(dp888
g4
S''
sg5
S''
sg6
S''
sg7
Vhttp://www.amazon.co.jp:80/gp/redirect.html?location=http://kdp.amazon.co.jp/&token=25721F78AFE9FE1B835441065112D77E2C06A231&source=standards
p889
sg9
I0
sg10
(lp890
sg12
I0
sg13
S''
sg14
g887
sbtp891
a(Vhttps://www.amazon.co.jp/version2
p892
(i__main__
ScrapingData
(dp893
g4
S''
sg5
S''
sg6
S''
sg7
Vhttps://www.amazon.co.jp/version2/b?ie=UTF8&node=52267051
p894
sg9
I0
sg10
(lp895
sg12
I0
sg13
S''
sg14
g892
sbtp896
a(Vhttps://www.amazon.co.jp/gp/press/info/home
p897
(i__main__
ScrapingData
(dp898
g4
S''
sg5
S''
sg6
S''
sg7
g897
sg9
I0
sg10
(lp899
sg12
I0
sg13
S''
sg14
g897
sbtp900
a(Vhttps://www.amazon.co.jp/Amazon%E3%81%AE%E7%92%B0%E5%A2%83%E3%81%B8%E3%81%AE%E5%8F%96%E3%82%8A%E7%B5%84%E3%81%BF-%E4%BC%81%E6%A5%AD%E8%B2%AC%E4%BB%BB
p901
(i__main__
ScrapingData
(dp902
g4
S''
sg5
S''
sg6
S''
sg7
Vhttps://www.amazon.co.jp/Amazon%E3%81%AE%E7%92%B0%E5%A2%83%E3%81%B8%E3%81%AE%E5%8F%96%E3%82%8A%E7%B5%84%E3%81%BF-%E4%BC%81%E6%A5%AD%E8%B2%AC%E4%BB%BB/b?ie=UTF8&node=2038754051
p903
sg9
I0
sg10
(lp904
sg12
I0
sg13
S''
sg14
g901
sbtp905
a(Vhttps://services.amazon.co.jp/services
p906
(i__main__
ScrapingData
(dp907
g4
S''
sg5
S''
sg6
S''
sg7
Vhttps://services.amazon.co.jp/services/retail-footer-lp.html?ld=AZJPSOAFOOT
p908
sg9
I0
sg10
(lp909
sg12
I0
sg13
S''
sg14
g906
sbtp910
a(Vhttps://affiliate.amazon.co.jp
p911
(i__main__
ScrapingData
(dp912
g4
S''
sg5
S''
sg6
S''
sg7
g911
sg9
I0
sg10
(lp913
sg12
I0
sg13
S''
sg14
g911
sbtp914
a(Vhttps://services.amazon.co.jp/services/fulfillment-by-amazon
p915
(i__main__
ScrapingData
(dp916
g4
S''
sg5
S''
sg6
S''
sg7
Vhttps://services.amazon.co.jp/services/fulfillment-by-amazon/merit.html?ld=AZJFBAFooter
p917
sg9
I0
sg10
(lp918
sg12
I0
sg13
S''
sg14
g915
sbtp919
a(Vhttps://kdp.amazon.co.jp
p920
(i__main__
ScrapingData
(dp921
g4
S''
sg5
S''
sg6
S''
sg7
Vhttps://kdp.amazon.co.jp/?ref=gw_footer1
p922
sg9
I0
sg10
(lp923
sg12
I0
sg13
S''
sg14
g920
sbtp924
a(Vhttps://vendorexpress.amazon.co.jp
p925
(i__main__
ScrapingData
(dp926
g4
S''
sg5
S''
sg6
S''
sg7
Vhttps://vendorexpress.amazon.co.jp/?ref=footer_vend
p927
sg9
I0
sg10
(lp928
sg12
I0
sg13
S''
sg14
g925
sbtp929
a(Vhttps://www.amazon.co.jp/Amazon%E3%83%9D%E3%82%A4%E3%83%B3%E3%83%88
p930
(i__main__
ScrapingData
(dp931
g4
S''
sg5
S''
sg6
S''
sg7
Vhttps://www.amazon.co.jp/Amazon%E3%83%9D%E3%82%A4%E3%83%B3%E3%83%88/b?ie=UTF8&node=2632478051
p932
sg9
I0
sg10
(lp933
sg12
I0
sg13
S''
sg14
g930
sbtp934
a(Vhttps://www.amazon.co.jp/%E3%82%AF%E3%83%AC%E3%82%B8%E3%83%83%E3%83%88%E3%82%AB%E3%83%BC%E3%83%89
p935
(i__main__
ScrapingData
(dp936
g4
S''
sg5
S''
sg6
S''
sg7
Vhttps://www.amazon.co.jp/%E3%82%AF%E3%83%AC%E3%82%B8%E3%83%83%E3%83%88%E3%82%AB%E3%83%BC%E3%83%89/b?ie=UTF8&node=2113286051&plattr=JBCCMPFT
p937
sg9
I0
sg10
(lp938
sg12
I0
sg13
S''
sg14
g935
sbtp939
a(Vhttps://www.amazon.co.jp/gp/shopwithpoints/marketing.html
p940
(i__main__
ScrapingData
(dp941
g4
S''
sg5
S''
sg6
S''
sg7
Vhttps://www.amazon.co.jp/gp/shopwithpoints/marketing.html/?ie=UTF8&inc=swpjcb&pr=swpjcb
p942
sg9
I0
sg10
(lp943
sg12
I0
sg13
S''
sg14
g940
sbtp944
a(Vhttps://www.amazon.co.jp/gp/subs/primeclub/signup/main.html
p945
(i__main__
ScrapingData
(dp946
g4
S''
sg5
S''
sg6
S''
sg7
g945
sg9
I0
sg10
(lp947
sg12
I0
sg13
S''
sg14
g945
sbtp948
a(Vhttps://www.amazon.co.jp/gp/css/returns/homepage.html
p949
(i__main__
ScrapingData
(dp950
g4
S''
sg5
S''
sg6
S''
sg7
g949
sg9
I0
sg10
(lp951
sg12
I0
sg13
S''
sg14
g949
sbtp952
a(Vhttps://www.amazon.co.jp/gp/BIT
p953
(i__main__
ScrapingData
(dp954
g4
S''
sg5
S''
sg6
S''
sg7
Vhttps://www.amazon.co.jp/gp/BIT/ref=bit_v2_j0012?bitCampaignCode=j0012
p955
sg9
I0
sg10
(lp956
sg12
I0
sg13
S''
sg14
g953
sbtp957
a(Vhttps://www.amazon.co.jp/gp/customer-preferences
p958
(i__main__
ScrapingData
(dp959
g4
S''
sg5
S''
sg6
S''
sg7
Vhttps://www.amazon.co.jp/gp/customer-preferences/select-language?ie=UTF8&preferencesReturnUrl=%2F
p960
sg9
I0
sg10
(lp961
sg12
I0
sg13
S''
sg14
g958
sbtp962
a.